ASxxxx Linker V03.00 + NoICE + sdld,  page 1.
Hexadecimal  [32-Bits]

Area                                    Addr        Size        Decimal Bytes (Attributes)
--------------------------------        ----        ----        ------- ----- ------------
.  .ABS.                            00000000    00000000 =           0. bytes (ABS,CON)

      Value  Global                              Global Defined In Module
      -----  --------------------------------   ------------------------
     00000000  .__.ABS.                           
     00000000  _rRAMG                             
     00000000  l__BASE                         
     00000000  l__BSS                          
     00000000  l__CABS                         
     00000000  l__CODE_0                       
     00000000  l__CRASH_HEADER                 
     00000000  l__CRASH_SCRATCH                
     00000000  l__DABS                         
     00000000  l__EHL_TRAMPOLINE               
     00000000  l__HEADER                       
     00000000  l__HEADER_LCD                   
     00000000  l__HEADER_SIO                   
     00000000  l__HEADER_TIMER                 
     00000000  l__HEAP                         
     00000000  l__HRAM                         
     00000000  l__LIT                          
     00000000  s__CABS                         
     00000000  s__CRASH_HEADER                 
     00000000  s__CRASH_HEADER0                
     00000000  s__CRASH_HEADER1                
     00000000  s__CRASH_SCRATCH                
     00000000  s__CRASH_SCRATCH2               
     00000000  s__DABS                         
     00000000  s__EHL_TRAMPOLINE               
     00000000  s__EHL_TRAMPOLINE0              
     00000000  s__HEADER                       
     00000000  s__HEADER0                      
     00000000  s__HEADER1                      
     00000000  s__HEADER10                     
     00000000  s__HEADER11                     
     00000000  s__HEADER2                      
     00000000  s__HEADER3                      
     00000000  s__HEADER4                      
     00000000  s__HEADER5                      
     00000000  s__HEADER6                      
     00000000  s__HEADER7                      
     00000000  s__HEADER8                      
     00000000  s__HEADER9                      
     00000000  s__HEADER_LCD                   
     00000000  s__HEADER_LCD0                  
     00000000  s__HEADER_SIO                   
     00000000  s__HEADER_SIO0                  
     00000000  s__HEADER_TIMER                 
     00000000  s__HEADER_TIMER0                
     00000000  s__HEADERa                      
     00000000  s__HEADERb                      
     00000000  s__HEADERc                      
     00000000  s__HEADERd                      
     00000000  s__HEADERe                      
ASxxxx Linker V03.00 + NoICE + sdld,  page 2.
Hexadecimal  [32-Bits]

Area                                    Addr        Size        Decimal Bytes (Attributes)
--------------------------------        ----        ----        ------- ----- ------------
.  .ABS.                            00000000    00000000 =           0. bytes (ABS,CON)

      Value  Global                              Global Defined In Module
      -----  --------------------------------   ------------------------
     00000000  s__HEADERf                      
     00000000  s__HRAM                         
     00000000  s__HRAM12                       
     00000001  ___bank_ACTOR                      actor
     00000001  ___bank_VM_ACTOR                   vm_actor
     00000001  ___bank_VM_SGB                     vm_sgb
     00000001  ___bank_bg_bg_endscreen_sad_tile   bg_bg_endscreen_sad_tileset
     00000001  ___bank_cursor_image               cursor_image
     00000001  b_activate_actor                   actor
     00000001  b_activate_actors_in_col           actor
     00000001  b_activate_actors_in_row           actor
     00000001  b_actor_at_tile                    actor
     00000001  b_actor_get_frame_offset           actor
     00000001  b_actor_in_front_of_player         actor
     00000001  b_actor_overlapping_bb             actor
     00000001  b_actor_overlapping_player         actor
     00000001  b_actor_set_anim_idle              actor
     00000001  b_actor_set_anim_moving            actor
     00000001  b_actor_set_dir                    actor
     00000001  b_actor_set_frame_offset           actor
     00000001  b_actor_set_frames                 actor
     00000001  b_actors_handle_player_collision   actor
     00000001  b_actors_init                      actor
     00000001  b_check_collision_in_direction     actor
     00000001  b_deactivate_actor                 actor
     00000001  b_player_init                      actor
     00000001  b_ui_draw_frame                    ui
     00000001  b_ui_draw_text_buffer_char         ui
     00000001  b_ui_init                          ui
     00000001  b_ui_load_tiles                    ui
     00000001  b_ui_run_menu                      ui
     00000001  b_ui_run_modal                     ui
     00000001  b_ui_set_start_tile                ui
     00000001  b_vm_actor_activate                vm_actor
     00000001  b_vm_actor_deactivate              vm_actor
     00000001  b_vm_actor_emote                   vm_actor
     00000001  b_vm_actor_get_angle               vm_actor
     00000001  b_vm_actor_get_anim_frame          vm_actor
     00000001  b_vm_actor_get_dir                 vm_actor
     00000001  b_vm_actor_get_pos                 vm_actor
     00000001  b_vm_actor_move_cancel             vm_actor
     00000001  b_vm_actor_move_to                 vm_actor
     00000001  b_vm_actor_replace_tile            vm_actor
     00000001  b_vm_actor_set_anim                vm_actor
     00000001  b_vm_actor_set_anim_frame          vm_actor
     00000001  b_vm_actor_set_anim_set            vm_actor
     00000001  b_vm_actor_set_anim_tick           vm_actor
     00000001  b_vm_actor_set_bounds              vm_actor
     00000001  b_vm_actor_set_dir                 vm_actor
     00000001  b_vm_actor_set_flags               vm_actor
     00000001  b_vm_actor_set_move_speed          vm_actor
ASxxxx Linker V03.00 + NoICE + sdld,  page 3.
Hexadecimal  [32-Bits]

Area                                    Addr        Size        Decimal Bytes (Attributes)
--------------------------------        ----        ----        ------- ----- ------------
.  .ABS.                            00000000    00000000 =           0. bytes (ABS,CON)

      Value  Global                              Global Defined In Module
      -----  --------------------------------   ------------------------
     00000001  b_vm_actor_set_pos                 vm_actor
     00000001  b_vm_actor_set_spritesheet         vm_actor
     00000001  b_vm_actor_set_spritesheet_by_re   vm_actor
     00000001  b_vm_actor_terminate_update        vm_actor
     00000001  l__GSFINAL                      
     00000001  l__HEADER0                      
     00000001  l__HEADER11                     
     00000001  l__HEADER9                      
     00000001  l__HEADERa                      
     00000001  l__HEADERb                      
     00000001  l__HEADERd                      
     00000001  l__HEADERe                      
     00000002  ___bank_bg_bg_creditscreen_theen   bg_bg_creditscreen_theend_ti
     00000002  ___bank_bg_bg_level1_tilemap       bg_bg_level1_tilemap
     00000002  ___bank_bg_bg_level1_tilemap_att   bg_bg_level1_tilemap_attr
     00000002  ___bank_palette_0                  palette_0
     00000002  ___bank_scene_parallax_example_c   scene_parallax_example_colli
     00000002  l__HEADER5                      
     00000002  l__HEADERc                      
     00000002  l__HEADERf                      
     00000003  ___bank_VM_MAIN                    vm
     00000003  ___bank_bg_bg_level3_longer_new_   bg_bg_level3_longer_new_tile
     00000003  ___bank_bg_bg_level3_longer_new_   bg_bg_level3_longer_new_tile
     00000003  ___bank_script_input_1             script_input_1
     00000003  ___bank_sprite_player_platform_t   sprite_player_platform_tiles
     00000003  b_platform_init                    platform
     00000003  b_platform_update                  platform
     00000003  b_script_detach_hthread            vm
     00000003  b_script_execute                   vm
     00000003  b_script_runner_init               vm
     00000003  b_script_terminate                 vm
     00000003  b_vm_call                          vm
     00000003  b_vm_call_far                      vm
     00000003  b_vm_get_indirect                  vm
     00000003  b_vm_get_int16                     vm
     00000003  b_vm_get_int8                      vm
     00000003  b_vm_get_tlocal                    vm
     00000003  b_vm_get_uint8                     vm
     00000003  b_vm_idle                          vm
     00000003  b_vm_if                            vm
     00000003  b_vm_if_const                      vm
     00000003  b_vm_init_rng                      vm
     00000003  b_vm_invoke                        vm
     00000003  b_vm_join                          vm
     00000003  b_vm_jump                          vm
     00000003  b_vm_lock                          vm
     00000003  b_vm_loop                          vm
     00000003  b_vm_memcpy                        vm
     00000003  b_vm_memset                        vm
     00000003  b_vm_poll_loaded                   vm
     00000003  b_vm_pop                           vm
ASxxxx Linker V03.00 + NoICE + sdld,  page 4.
Hexadecimal  [32-Bits]

Area                                    Addr        Size        Decimal Bytes (Attributes)
--------------------------------        ----        ----        ------- ----- ------------
.  .ABS.                            00000000    00000000 =           0. bytes (ABS,CON)

      Value  Global                              Global Defined In Module
      -----  --------------------------------   ------------------------
     00000003  b_vm_push                          vm
     00000003  b_vm_push_reference                vm
     00000003  b_vm_push_value                    vm
     00000003  b_vm_push_value_ind                vm
     00000003  b_vm_raise                         vm
     00000003  b_vm_rand                          vm
     00000003  b_vm_reserve                       vm
     00000003  b_vm_ret                           vm
     00000003  b_vm_ret_far                       vm
     00000003  b_vm_set                           vm
     00000003  b_vm_set_const                     vm
     00000003  b_vm_set_const_int16               vm
     00000003  b_vm_set_const_int8                vm
     00000003  b_vm_set_indirect                  vm
     00000003  b_vm_set_int16                     vm
     00000003  b_vm_set_int8                      vm
     00000003  b_vm_set_uint8                     vm
     00000003  b_vm_terminate                     vm
     00000003  b_vm_test_terminate                vm
     00000003  b_vm_unlock                        vm
     00000003  b_wait_frames                      vm
     00000003  l__HEADER8                      
     00000003  l__HEADER_LCD0                  
     00000003  l__HRAM12                       
     00000004  ___bank_bg_bg_level2_tileset       bg_bg_level2_tileset
     00000004  ___bank_bg_bg_openingscreen_tile   bg_bg_openingscreen_tileset
     00000004  ___bank_font_gbs_mono              font_gbs_mono
     00000004  ___bank_scene_0_collisions         scene_0_collisions
     00000004  b_do_load_palette                  data_manager
     00000004  b_events_init                      events
     00000004  b_load_background                  data_manager
     00000004  b_load_bkg_tileset                 data_manager
     00000004  b_load_bounds                      data_manager
     00000004  b_load_emote                       data_manager
     00000004  b_load_init                        data_manager
     00000004  b_load_player                      data_manager
     00000004  b_load_scene                       data_manager
     00000004  b_load_sprite                      data_manager
     00000004  b_timers_init                      events
     00000004  l__CRASH_HEADER1                
     00000004  l__HEADER_SIO0                  
     00000004  l__HEADER_TIMER0                
     00000005  ___bank_VM_GAMEBOY                 vm_gameboy
     00000005  ___bank_bg_bg_level1_tileset       bg_bg_level1_tileset
     00000005  ___bank_bg_credit_red_tileset      bg_credit_red_tileset
     00000005  ___bank_bg_credit_robin_tileset    bg_credit_robin_tileset
     00000005  ___bank_bg_credit_ryan_tileset     bg_credit_ryan_tileset
     00000005  ___bank_bg_credit_twinkie_tilese   bg_credit_twinkie_tileset
     00000005  ___bank_scene_0_sprites            scene_0_sprites
     00000005  ___bank_sprite_chemical_cloud_ti   sprite_chemical_cloud_tilese
     00000005  b_vm_context_prepare               vm_gameboy
ASxxxx Linker V03.00 + NoICE + sdld,  page 5.
Hexadecimal  [32-Bits]

Area                                    Addr        Size        Decimal Bytes (Attributes)
--------------------------------        ----        ----        ------- ----- ------------
.  .ABS.                            00000000    00000000 =           0. bytes (ABS,CON)

      Value  Global                              Global Defined In Module
      -----  --------------------------------   ------------------------
     00000005  b_vm_fade                          vm_gameboy
     00000005  b_vm_get_tile_xy                   vm_gameboy
     00000005  b_vm_input_attach                  vm_gameboy
     00000005  b_vm_input_detach                  vm_gameboy
     00000005  b_vm_input_get                     vm_gameboy
     00000005  b_vm_input_wait                    vm_gameboy
     00000005  b_vm_load_tiles                    vm_gameboy
     00000005  b_vm_load_tileset                  vm_gameboy
     00000005  b_vm_poll                          vm_gameboy
     00000005  b_vm_replace_tile                  vm_gameboy
     00000005  b_vm_replace_tile_xy               vm_gameboy
     00000005  b_vm_rumble                        vm_gameboy
     00000005  b_vm_set_sprite_mode               vm_gameboy
     00000005  b_vm_set_sprites_visible           vm_gameboy
     00000005  b_vm_timer_prepare                 vm_gameboy
     00000005  b_vm_timer_reset                   vm_gameboy
     00000005  b_vm_timer_set                     vm_gameboy
     00000005  b_vm_timer_stop                    vm_gameboy
     00000005  l__CRASH_HEADER0                
     00000005  l__HEADER1                      
     00000006  ___bank_bg_bg_endscreen_happy_ti   bg_bg_endscreen_happy_tilese
     00000006  ___bank_bg_bg_endscreen_pee_tile   bg_bg_endscreen_pee_tileset
     00000006  ___bank_bg_bg_endscreen_shake_ti   bg_bg_endscreen_shake_tilese
     00000006  ___bank_bg_bg_level2_tilemap_att   bg_bg_level2_tilemap_attr
     00000006  ___bank_bg_bg_level3_longer_new_   bg_bg_level3_longer_new_tile
     00000006  ___bank_bg_bg_startscreen_final_   bg_bg_startscreen_final_tile
     00000006  ___bank_scene_19_init              scene_19_init
     00000006  b_adventure_init                   adventure
     00000006  b_adventure_update                 adventure
     00000006  l__HEADER7                      
     00000007  ___bank_VM_PALETTE                 vm_palette
     00000007  ___bank_VM_UI                      vm_ui
     00000007  ___bank_bg_bg_level2_tilemap       bg_bg_level2_tilemap
     00000007  ___bank_scene_9_collisions         scene_9_collisions
     00000007  ___bank_song_level3_Data           song_level3_Data
     00000007  ___bank_song_red_test_Data         song_red_test_Data
     00000007  b_camera_init                      camera
     00000007  b_camera_reset                     camera
     00000007  b_scroll_init                      scroll
     00000007  b_scroll_repaint                   scroll
     00000007  b_scroll_reset                     scroll
     00000007  b_scroll_update                    scroll
     00000007  b_shmup_init                       shmup
     00000007  b_shmup_update                     shmup
     00000007  b_topdown_init                     topdown
     00000007  b_topdown_update                   topdown
     00000007  b_vm_choice                        vm_ui
     00000007  b_vm_display_text                  vm_ui
     00000007  b_vm_load_palette                  vm_palette
     00000007  b_vm_overlay_clear                 vm_ui
     00000007  b_vm_overlay_move_to               vm_ui
ASxxxx Linker V03.00 + NoICE + sdld,  page 6.
Hexadecimal  [32-Bits]

Area                                    Addr        Size        Decimal Bytes (Attributes)
--------------------------------        ----        ----        ------- ----- ------------
.  .ABS.                            00000000    00000000 =           0. bytes (ABS,CON)

      Value  Global                              Global Defined In Module
      -----  --------------------------------   ------------------------
     00000007  b_vm_overlay_scroll                vm_ui
     00000007  b_vm_overlay_set_map               vm_ui
     00000007  b_vm_overlay_set_scroll            vm_ui
     00000007  b_vm_overlay_set_submap            vm_ui
     00000007  b_vm_overlay_set_submap_ex         vm_ui
     00000007  b_vm_overlay_setpos                vm_ui
     00000007  b_vm_overlay_show                  vm_ui
     00000007  b_vm_overlay_wait                  vm_ui
     00000007  b_vm_set_font                      vm_ui
     00000007  b_vm_set_text_sound                vm_ui
     00000007  b_vm_switch_text_layer             vm_ui
     00000007  l__HEADER2                      
     00000008  ___bank_actor_18_update            actor_18_update
     00000008  ___bank_bg_bg_endscreen_tileset    bg_bg_endscreen_tileset
     00000008  ___bank_scene_0_actors             scene_0_actors
     00000008  ___bank_scene_9_actors             scene_9_actors
     00000008  ___bank_song_introcutscene_Data    song_introcutscene_Data
     00000008  ___bank_song_level2_Data           song_level2_Data
     00000008  ___bank_song_startmenu_Data        song_startmenu_Data
     00000008  ___bank_song_victory_Data          song_victory_Data
     00000008  ___bank_sprite_0_peeanim_sad_til   sprite_0_peeanim_sad_tileset
     00000008  ___bank_sprite_chemical_vat_rev_   sprite_chemical_vat_rev_ani_
     00000008  ___bank_sprite_gbs_font_small      sprite_gbs_font_small
     00000008  ___bank_sprite_plant_stages_v1_t   sprite_plant_stages_v1_tiles
     00000008  ___mute_mask_sound_legacy_0        sound_legacy_0
     00000008  b_core_reset                       core
     00000008  b_core_run                         core
     00000008  b_data_clear                       load_save
     00000008  b_data_init                        load_save
     00000008  b_data_load                        load_save
     00000008  b_data_peek                        load_save
     00000008  b_data_save                        load_save
     00000008  b_projectile_launch                projectiles
     00000008  b_projectiles_init                 projectiles
     00000008  l__HEADER3                      
     00000009  ___bank_VM_CAMERA                  vm_camera
     00000009  ___bank_VM_SIO                     vm_sio
     00000009  ___bank_bg_bg_creditscreen_theen   bg_bg_creditscreen_theend_ti
     00000009  ___bank_bg_bg_creditscreen_theen   bg_bg_creditscreen_theend_ti
     00000009  ___bank_bg_bg_endscreen_happy_ti   bg_bg_endscreen_happy_tilema
     00000009  ___bank_bg_bg_endscreen_pee_tile   bg_bg_endscreen_pee_tilemap
     00000009  ___bank_bg_bg_endscreen_sad_tile   bg_bg_endscreen_sad_tilemap
     00000009  ___bank_bg_bg_endscreen_shake_ti   bg_bg_endscreen_shake_tilema
     00000009  ___bank_bg_bg_endscreen_tilemap    bg_bg_endscreen_tilemap
     00000009  ___bank_bg_bg_endscreen_tilemap_   bg_bg_endscreen_tilemap_attr
     00000009  ___bank_bg_bg_openingscreen_tile   bg_bg_openingscreen_tilemap
     00000009  ___bank_bg_bg_openingscreen_tile   bg_bg_openingscreen_tilemap_
     00000009  ___bank_scene_10_collisions        scene_10_collisions
     00000009  ___bank_scene_logo_collisions      scene_logo_collisions
     00000009  ___bank_scene_parallax_example_a   scene_parallax_example_actor
     00000009  ___bank_sprite_gbs_font_small_ti   sprite_gbs_font_small_tilese
ASxxxx Linker V03.00 + NoICE + sdld,  page 7.
Hexadecimal  [32-Bits]

Area                                    Addr        Size        Decimal Bytes (Attributes)
--------------------------------        ----        ----        ------- ----- ------------
.  .ABS.                            00000000    00000000 =           0. bytes (ABS,CON)

      Value  Global                              Global Defined In Module
      -----  --------------------------------   ------------------------
     00000009  ___bank_sprite_player_platform     sprite_player_platform
     00000009  ___bank_sprite_player_tileset      sprite_player_tileset
     00000009  ___bank_sprite_rain_tileset        sprite_rain_tileset
     00000009  b___HandleCrash_banked             
     00000009  b_camera_shake_frames              vm_camera
     00000009  b_erase_flash                      
     00000009  b_fade_applypalettechange          fade_manager
     00000009  b_fade_in                          fade_manager
     00000009  b_fade_in_modal                    fade_manager
     00000009  b_fade_init                        fade_manager
     00000009  b_fade_out                         fade_manager
     00000009  b_fade_out_modal                   fade_manager
     00000009  b_fade_setspeed                    fade_manager
     00000009  b_fade_update                      fade_manager
     00000009  b_gbprinter_detect                 gbprinter
     00000009  b_gbprinter_print_overlay          gbprinter
     00000009  b_pointnclick_init                 pointnclick
     00000009  b_pointnclick_update               pointnclick
     00000009  b_save_sram_banks                  
     00000009  b_set_sgb_border                   sgb_border
     00000009  b_trigger_activate_at              trigger
     00000009  b_trigger_activate_at_intersecti   trigger
     00000009  b_trigger_at_intersection          trigger
     00000009  b_trigger_at_tile                  trigger
     00000009  b_trigger_interact                 trigger
     00000009  b_trigger_reset                    trigger
     00000009  b_vm_camera_move_to                vm_camera
     00000009  b_vm_camera_set_pos                vm_camera
     00000009  b_vm_sio_exchange                  vm_sio
     00000009  b_vm_sio_set_mode                  vm_sio
     0000000A  ___bank_VM_GBPRINTER               vm_gbprinter
     0000000A  ___bank_VM_LOAD_SAVE               vm_load_save
     0000000A  ___bank_VM_MATH                    vm_math
     0000000A  ___bank_VM_MUSIC                   vm_music
     0000000A  ___bank_VM_PROJECTILE              vm_projectiles
     0000000A  ___bank_VM_RTC                     vm_rtc
     0000000A  ___bank_VM_SCENE                   vm_scene
     0000000A  ___bank_actor_19_interact          actor_19_interact
     0000000A  ___bank_actor_1_interact           actor_1_interact
     0000000A  ___bank_actor_22_update            actor_22_update
     0000000A  ___bank_actor_26_update            actor_26_update
     0000000A  ___bank_actor_28_update            actor_28_update
     0000000A  ___bank_actor_29_update            actor_29_update
     0000000A  ___bank_actor_30_interact          actor_30_interact
     0000000A  ___bank_actor_31_update            actor_31_update
     0000000A  ___bank_actor_32_interact          actor_32_interact
     0000000A  ___bank_actor_34_update            actor_34_update
     0000000A  ___bank_actor_35_update            actor_35_update
     0000000A  ___bank_actor_39_update            actor_39_update
     0000000A  ___bank_actor_41_interact          actor_41_interact
     0000000A  ___bank_actor_45_update            actor_45_update
ASxxxx Linker V03.00 + NoICE + sdld,  page 8.
Hexadecimal  [32-Bits]

Area                                    Addr        Size        Decimal Bytes (Attributes)
--------------------------------        ----        ----        ------- ----- ------------
.  .ABS.                            00000000    00000000 =           0. bytes (ABS,CON)

      Value  Global                              Global Defined In Module
      -----  --------------------------------   ------------------------
     0000000A  ___bank_actor_46_interact          actor_46_interact
     0000000A  ___bank_actor_47_update            actor_47_update
     0000000A  ___bank_actor_48_update            actor_48_update
     0000000A  ___bank_actor_49_interact          actor_49_interact
     0000000A  ___bank_actor_55_interact          actor_55_interact
     0000000A  ___bank_actor_59_update            actor_59_update
     0000000A  ___bank_actor_60_interact          actor_60_interact
     0000000A  ___bank_actor_61_interact          actor_61_interact
     0000000A  ___bank_actor_62_update            actor_62_update
     0000000A  ___bank_actor_64_interact          actor_64_interact
     0000000A  ___bank_actor_65_update            actor_65_update
     0000000A  ___bank_actor_66_update            actor_66_update
     0000000A  ___bank_actor_67_update            actor_67_update
     0000000A  ___bank_actor_68_update            actor_68_update
     0000000A  ___bank_actor_70_interact          actor_70_interact
     0000000A  ___bank_actor_74_interact          actor_74_interact
     0000000A  ___bank_bg_bg_startscreen_final_   bg_bg_startscreen_final_tile
     0000000A  ___bank_bg_credit_red_tilemap      bg_credit_red_tilemap
     0000000A  ___bank_bg_credit_robin_tilemap    bg_credit_robin_tilemap
     0000000A  ___bank_bg_credit_ryan_tilemap     bg_credit_ryan_tilemap
     0000000A  ___bank_bg_credit_twinkie_tilema   bg_credit_twinkie_tilemap
     0000000A  ___bank_frame_image                frame_image
     0000000A  ___bank_palette_1                  palette_1
     0000000A  ___bank_palette_2                  palette_2
     0000000A  ___bank_palette_3                  palette_3
     0000000A  ___bank_palette_4                  palette_4
     0000000A  ___bank_palette_5                  palette_5
     0000000A  ___bank_palette_6                  palette_6
     0000000A  ___bank_palette_7                  palette_7
     0000000A  ___bank_scene_0                    scene_0
     0000000A  ___bank_scene_0_init               scene_0_init
     0000000A  ___bank_scene_10                   scene_10
     0000000A  ___bank_scene_10_actors            scene_10_actors
     0000000A  ___bank_scene_10_init              scene_10_init
     0000000A  ___bank_scene_10_sprites           scene_10_sprites
     0000000A  ___bank_scene_11                   scene_11
     0000000A  ___bank_scene_11_collisions        scene_11_collisions
     0000000A  ___bank_scene_11_init              scene_11_init
     0000000A  ___bank_scene_12                   scene_12
     0000000A  ___bank_scene_12_collisions        scene_12_collisions
     0000000A  ___bank_scene_12_init              scene_12_init
     0000000A  ___bank_scene_13                   scene_13
     0000000A  ___bank_scene_13_collisions        scene_13_collisions
     0000000A  ___bank_scene_13_init              scene_13_init
     0000000A  ___bank_scene_14                   scene_14
     0000000A  ___bank_scene_14_collisions        scene_14_collisions
     0000000A  ___bank_scene_14_init              scene_14_init
     0000000A  ___bank_scene_15                   scene_15
     0000000A  ___bank_scene_15_collisions        scene_15_collisions
     0000000A  ___bank_scene_15_init              scene_15_init
     0000000A  ___bank_scene_16                   scene_16
ASxxxx Linker V03.00 + NoICE + sdld,  page 9.
Hexadecimal  [32-Bits]

Area                                    Addr        Size        Decimal Bytes (Attributes)
--------------------------------        ----        ----        ------- ----- ------------
.  .ABS.                            00000000    00000000 =           0. bytes (ABS,CON)

      Value  Global                              Global Defined In Module
      -----  --------------------------------   ------------------------
     0000000A  ___bank_scene_16_collisions        scene_16_collisions
     0000000A  ___bank_scene_16_init              scene_16_init
     0000000A  ___bank_scene_17                   scene_17
     0000000A  ___bank_scene_17_collisions        scene_17_collisions
     0000000A  ___bank_scene_17_init              scene_17_init
     0000000A  ___bank_scene_18                   scene_18
     0000000A  ___bank_scene_18_collisions        scene_18_collisions
     0000000A  ___bank_scene_18_init              scene_18_init
     0000000A  ___bank_scene_19                   scene_19
     0000000A  ___bank_scene_19_collisions        scene_19_collisions
     0000000A  ___bank_scene_9                    scene_9
     0000000A  ___bank_scene_9_init               scene_9_init
     0000000A  ___bank_scene_logo                 scene_logo
     0000000A  ___bank_scene_logo_init            scene_logo_init
     0000000A  ___bank_scene_parallax_example     scene_parallax_example
     0000000A  ___bank_scene_parallax_example_i   scene_parallax_example_init
     0000000A  ___bank_scene_title_screen_colli   scene_title_screen_collision
     0000000A  ___bank_scene_title_screen_init    scene_title_screen_init
     0000000A  ___bank_script_15                  script_15
     0000000A  ___bank_script_engine_init         
     0000000A  ___bank_sprite_0_peeanim_sad       sprite_0_peeanim_sad
     0000000A  ___bank_sprite_chemical_vat_rev_   sprite_chemical_vat_rev_ani
     0000000A  ___bank_sprite_cloud_player_spri   sprite_cloud_player_sprite_t
     0000000A  ___bank_sprite_flame_baby_idling   sprite_flame_baby_idling_an
     0000000A  ___bank_sprite_flame_baby_idling   sprite_flame_baby_idling_an_
     0000000A  ___bank_sprite_fly_enemysingle_a   sprite_fly_enemysingle_anim
     0000000A  ___bank_sprite_fly_enemysingle_a   sprite_fly_enemysingle_anim_
     0000000A  ___bank_sprite_plant_stages_v1     sprite_plant_stages_v1
     0000000A  ___bank_sprite_player              sprite_player
     0000000A  ___bank_sprite_rain                sprite_rain
     0000000A  ___bank_sprite_soot_idle_anim      sprite_soot_idle_anim
     0000000A  ___bank_sprite_soot_idle_anim_ti   sprite_soot_idle_anim_tilese
     0000000A  ___bank_sprite_sprite_raindrop     sprite_sprite_raindrop
     0000000A  ___bank_sprite_sprite_raindrop_t   sprite_sprite_raindrop_tiles
     0000000A  ___bank_sprite_tree_stump_tilese   sprite_tree_stump_tileset
     0000000A  b_CGBZeroPalette                   palette
     0000000A  b_SIO_init                         sio
     0000000A  b_itoa_fmt                         vm_ui_a
     0000000A  b_music_events_poll                music_manager
     0000000A  b_music_init_driver                music_manager
     0000000A  b_music_init_events                music_manager
     0000000A  b_palette_init                     palette
     0000000A  b_restore_sram                     flasher
     0000000A  b_restore_sram_bank                flasher
     0000000A  b_save_sram                        flasher
     0000000A  b_scroll_rect                      
     0000000A  b_vm_cos_scale                     vm_math
     0000000A  b_vm_music_mute                    vm_music
     0000000A  b_vm_music_play                    vm_music
     0000000A  b_vm_music_routine                 vm_music
     0000000A  b_vm_music_setpos                  vm_music
ASxxxx Linker V03.00 + NoICE + sdld,  page 10.
Hexadecimal  [32-Bits]

Area                                    Addr        Size        Decimal Bytes (Attributes)
--------------------------------        ----        ----        ------- ----- ------------
.  .ABS.                            00000000    00000000 =           0. bytes (ABS,CON)

      Value  Global                              Global Defined In Module
      -----  --------------------------------   ------------------------
     0000000A  b_vm_music_stop                    vm_music
     0000000A  b_vm_print_detect                  vm_gbprinter
     0000000A  b_vm_print_overlay                 vm_gbprinter
     0000000A  b_vm_projectile_launch             vm_projectiles
     0000000A  b_vm_projectile_load_type          vm_projectiles
     0000000A  b_vm_rtc_get                       vm_rtc
     0000000A  b_vm_rtc_latch                     vm_rtc
     0000000A  b_vm_rtc_set                       vm_rtc
     0000000A  b_vm_rtc_start                     vm_rtc
     0000000A  b_vm_save_clear                    vm_load_save
     0000000A  b_vm_save_peek                     vm_load_save
     0000000A  b_vm_scene_pop                     vm_scene
     0000000A  b_vm_scene_pop_all                 vm_scene
     0000000A  b_vm_scene_push                    vm_scene
     0000000A  b_vm_scene_stack_reset             vm_scene
     0000000A  b_vm_sfx_play                      vm_music
     0000000A  b_vm_sin_scale                     vm_math
     0000000A  b_vm_sound_mastervol               vm_music
     0000000B  ___bank_actor_20_update            actor_20_update
     0000000B  ___bank_actor_22_interact          actor_22_interact
     0000000B  ___bank_actor_26_interact          actor_26_interact
     0000000B  ___bank_actor_28_interact          actor_28_interact
     0000000B  ___bank_actor_29_interact          actor_29_interact
     0000000B  ___bank_actor_31_interact          actor_31_interact
     0000000B  ___bank_actor_34_interact          actor_34_interact
     0000000B  ___bank_actor_35_interact          actor_35_interact
     0000000B  ___bank_actor_36_update            actor_36_update
     0000000B  ___bank_actor_37_update            actor_37_update
     0000000B  ___bank_actor_39_interact          actor_39_interact
     0000000B  ___bank_actor_45_interact          actor_45_interact
     0000000B  ___bank_actor_47_interact          actor_47_interact
     0000000B  ___bank_actor_48_interact          actor_48_interact
     0000000B  ___bank_actor_51_interact          actor_51_interact
     0000000B  ___bank_actor_51_update            actor_51_update
     0000000B  ___bank_actor_52_interact          actor_52_interact
     0000000B  ___bank_actor_52_update            actor_52_update
     0000000B  ___bank_actor_53_interact          actor_53_interact
     0000000B  ___bank_actor_53_update            actor_53_update
     0000000B  ___bank_actor_54_update            actor_54_update
     0000000B  ___bank_actor_56_update            actor_56_update
     0000000B  ___bank_actor_59_interact          actor_59_interact
     0000000B  ___bank_actor_62_interact          actor_62_interact
     0000000B  ___bank_actor_65_interact          actor_65_interact
     0000000B  ___bank_actor_66_interact          actor_66_interact
     0000000B  ___bank_actor_67_interact          actor_67_interact
     0000000B  ___bank_actor_71_interact          actor_71_interact
     0000000B  ___bank_actor_71_update            actor_71_update
     0000000B  ___bank_actor_72_interact          actor_72_interact
     0000000B  ___bank_actor_72_update            actor_72_update
     0000000B  ___bank_actor_73_interact          actor_73_interact
     0000000B  ___bank_actor_73_update            actor_73_update
ASxxxx Linker V03.00 + NoICE + sdld,  page 11.
Hexadecimal  [32-Bits]

Area                                    Addr        Size        Decimal Bytes (Attributes)
--------------------------------        ----        ----        ------- ----- ------------
.  .ABS.                            00000000    00000000 =           0. bytes (ABS,CON)

      Value  Global                              Global Defined In Module
      -----  --------------------------------   ------------------------
     0000000B  ___bank_bg_bg_creditscreen_theen   bg_bg_creditscreen_theend
     0000000B  ___bank_bg_bg_endscreen            bg_bg_endscreen
     0000000B  ___bank_bg_bg_endscreen_happy      bg_bg_endscreen_happy
     0000000B  ___bank_bg_bg_endscreen_pee        bg_bg_endscreen_pee
     0000000B  ___bank_bg_bg_endscreen_sad        bg_bg_endscreen_sad
     0000000B  ___bank_bg_bg_endscreen_shake      bg_bg_endscreen_shake
     0000000B  ___bank_bg_bg_level1               bg_bg_level1
     0000000B  ___bank_bg_bg_level2               bg_bg_level2
     0000000B  ___bank_bg_bg_level3_longer_new    bg_bg_level3_longer_new
     0000000B  ___bank_bg_bg_openingscreen        bg_bg_openingscreen
     0000000B  ___bank_bg_bg_startscreen_final    bg_bg_startscreen_final
     0000000B  ___bank_bg_credit_red              bg_credit_red
     0000000B  ___bank_bg_credit_robin            bg_credit_robin
     0000000B  ___bank_bg_credit_ryan             bg_credit_ryan
     0000000B  ___bank_bg_credit_twinkie          bg_credit_twinkie
     0000000B  ___bank_bootstrap_script           
     0000000B  ___bank_scene_0_triggers           scene_0_triggers
     0000000B  ___bank_scene_18_actors            scene_18_actors
     0000000B  ___bank_scene_18_sprites           scene_18_sprites
     0000000B  ___bank_scene_19_actors            scene_19_actors
     0000000B  ___bank_scene_19_sprites           scene_19_sprites
     0000000B  ___bank_scene_9_sprites            scene_9_sprites
     0000000B  ___bank_scene_9_triggers           scene_9_triggers
     0000000B  ___bank_scene_parallax_example_s   scene_parallax_example_sprit
     0000000B  ___bank_scene_parallax_example_t   scene_parallax_example_trigg
     0000000B  ___bank_scene_title_screen         scene_title_screen
     0000000B  ___bank_script_12                  script_12
     0000000B  ___bank_script_init_menu           script_init_menu
     0000000B  ___bank_script_input_0             script_input_0
     0000000B  ___bank_script_input_2             script_input_2
     0000000B  ___bank_script_input_3             script_input_3
     0000000B  ___bank_sound_legacy_0             sound_legacy_0
     0000000B  ___bank_sprite_chemical_cloud      sprite_chemical_cloud
     0000000B  ___bank_sprite_cloud_player_spri   sprite_cloud_player_sprite
     0000000B  ___bank_sprite_tree_stump          sprite_tree_stump
     0000000B  ___bank_spritesheet_none           spritesheet_none
     0000000B  ___bank_trigger_0_interact         trigger_0_interact
     0000000B  ___bank_trigger_1_interact         trigger_1_interact
     0000000B  ___bank_trigger_2_interact         trigger_2_interact
     0000000B  ___bank_trigger_3_interact         trigger_3_interact
     0000000B  ___bank_trigger_40_interact        trigger_40_interact
     0000000B  ___bank_trigger_4_interact         trigger_4_interact
     0000000B  ___bank_trigger_5_interact         trigger_5_interact
     0000000B  ___bank_trigger_6_interact         trigger_6_interact
     0000000B  ___bank_trigger_7_interact         trigger_7_interact
     0000000B  b_input_init                       input
     0000000B  b_logo_init                        logo
     0000000B  b_logo_update                      logo
     0000000B  b_parallax_init                    parallax
     0000000B  b_remove_LCD_ISRs                  interrupts
     0000000C  __start_save                    
ASxxxx Linker V03.00 + NoICE + sdld,  page 12.
Hexadecimal  [32-Bits]

Area                                    Addr        Size        Decimal Bytes (Attributes)
--------------------------------        ----        ----        ------- ----- ------------
.  .ABS.                            00000000    00000000 =           0. bytes (ABS,CON)

      Value  Global                              Global Defined In Module
      -----  --------------------------------   ------------------------
     00000011  l__EHL_TRAMPOLINE0              
     00000019  l__INITIALIZED                  
     00000019  l__INITIALIZER                  
     00000027  l__GSINIT                       
     00000030  l__HEADER6                      
     0000004E  l__HEADER4                      
     00000082  l__HEADER10                     
     000001CB  l__CRASH_SCRATCH2               
     00000200  s__CODE                         
     0000081B  l__CODE_11                      
     00000C4E  l__CODE                         
     00000E4E  s__HOME                         
     0000197F  l__DATA                         
     00002000  _rROMB0                            
     00002C81  l__HOME                         
     00003000  _rROMB1                            
     00003ACF  s__BASE                         
     00003ACF  s__CODE_0                       
     00003ACF  s__INITIALIZER                  
     00003ACF  s__LIT                          
     00003AE8  s__GSINIT                       
     00003B0F  s__GSFINAL                      
     00003FFE  l__CODE_9                       
     00003FFF  l__CODE_2                       
     00003FFF  l__CODE_7                       
     00003FFF  l__CODE_8                       
     00004000  _RTC_SELECT_REG                    vm_rtc
     00004000  _rRAMB                             
     00004000  l__CODE_1                       
     00004000  l__CODE_10                      
     00004000  l__CODE_3                       
     00004000  l__CODE_4                       
     00004000  l__CODE_5                       
     00004000  l__CODE_6                       
     00006000  _RTC_LATCH_REG                     vm_rtc
     00008000  __VRAM                             
     00008000  __VRAM8000                         
     00008800  __VRAM8800                         
     00009000  __VRAM9000                         
     00009800  __SCRN0                            
     00009C00  __SCRN1                            
     0000A000  _RTC_VALUE_REG                     vm_rtc
     0000A000  __SRAM                             
     0000C000  __RAM                              
     0000C000  _shadow_OAM                     
     0000C0A0  s__DATA                         
     0000D000  __RAMBANK                          
     0000DA1F  s__BSS                          
     0000DA1F  s__INITIALIZED                  
     0000DA38  s__HEAP                         
     0000DF00  .STACK                          
ASxxxx Linker V03.00 + NoICE + sdld,  page 13.
Hexadecimal  [32-Bits]

Area                                    Addr        Size        Decimal Bytes (Attributes)
--------------------------------        ----        ----        ------- ----- ------------
.  .ABS.                            00000000    00000000 =           0. bytes (ABS,CON)

      Value  Global                              Global Defined In Module
      -----  --------------------------------   ------------------------
     0000DF00  _shadow_OAM2                       absolute
     0000DFA0  _BkgPalette                        absolute
     0000DFE0  _vwf_tile_data                     absolute
     0000FE00  __OAMRAM                           
     0000FF00  _P1_REG                            
     0000FF00  __IO                               
     0000FF01  _SB_REG                            
     0000FF02  _SC_REG                            
     0000FF04  _DIV_REG                           
     0000FF05  _TIMA_REG                          
     0000FF06  _TMA_REG                           
     0000FF07  _TAC_REG                           
     0000FF0F  _IF_REG                            
     0000FF10  _NR10_REG                          
     0000FF11  _NR11_REG                          
     0000FF12  _NR12_REG                          
     0000FF13  _NR13_REG                          
     0000FF14  _NR14_REG                          
     0000FF16  _NR21_REG                          
     0000FF17  _NR22_REG                          
     0000FF18  _NR23_REG                          
     0000FF19  _NR24_REG                          
     0000FF1A  _NR30_REG                          
     0000FF1B  _NR31_REG                          
     0000FF1C  _NR32_REG                          
     0000FF1D  _NR33_REG                          
     0000FF1E  _NR34_REG                          
     0000FF20  _NR41_REG                          
     0000FF21  _NR42_REG                          
     0000FF22  _NR43_REG                          
     0000FF23  _NR44_REG                          
     0000FF24  _NR50_REG                          
     0000FF25  _NR51_REG                          
     0000FF26  _NR52_REG                          
     0000FF30  _AUD3WAVE                          
     0000FF30  _PCM_SAMPLE                        
     0000FF30  __AUD3WAVERAM                      
     0000FF40  _LCDC_REG                          
     0000FF41  _STAT_REG                          
     0000FF42  _SCY_REG                           
     0000FF43  _SCX_REG                           
     0000FF44  _LY_REG                            
     0000FF45  _LYC_REG                           
     0000FF46  _DMA_REG                           
     0000FF47  _BGP_REG                           
     0000FF48  _OBP0_REG                          
     0000FF49  _OBP1_REG                          
     0000FF4A  _WY_REG                            
     0000FF4B  _WX_REG                            
     0000FF4D  _KEY1_REG                          
     0000FF4F  _VBK_REG                           
ASxxxx Linker V03.00 + NoICE + sdld,  page 14.
Hexadecimal  [32-Bits]

Area                                    Addr        Size        Decimal Bytes (Attributes)
--------------------------------        ----        ----        ------- ----- ------------
.  .ABS.                            00000000    00000000 =           0. bytes (ABS,CON)

      Value  Global                              Global Defined In Module
      -----  --------------------------------   ------------------------
     0000FF51  _HDMA1_REG                         
     0000FF52  _HDMA2_REG                         
     0000FF53  _HDMA3_REG                         
     0000FF54  _HDMA4_REG                         
     0000FF55  _HDMA5_REG                         
     0000FF56  _RP_REG                            
     0000FF68  _BCPS_REG                          
     0000FF69  _BCPD_REG                          
     0000FF6A  _OCPS_REG                          
     0000FF6B  _OCPD_REG                          
     0000FF70  _SVBK_REG                          
     0000FF76  _PCM12_REG                         
     0000FF77  _PCM34_REG                         
     0000FF80  .refresh_OAM                    
     0000FF80  __HRAM                             
     0000FFFF  _IE_REG                            
     00014000  s__CODE_1                       
     00024000  s__CODE_2                       
     00034000  s__CODE_3                       
     00044000  s__CODE_4                       
     00054000  s__CODE_5                       
     00064000  s__CODE_6                       
     00074000  s__CODE_7                       
     00084000  s__CODE_8                       
     00094000  s__CODE_9                       
     000A4000  s__CODE_10                      
     000B4000  s__CODE_11                      

ASxxxx Linker V03.00 + NoICE + sdld,  page 15.
Hexadecimal  [32-Bits]

Area                                    Addr        Size        Decimal Bytes (Attributes)
--------------------------------        ----        ----        ------- ----- ------------
_CODE                               00000200    00000C4E =        3150. bytes (REL,CON)

      Value  Global                              Global Defined In Module
      -----  --------------------------------   ------------------------
     00000200  ___HandleCrash                     
     0000020A  _SIO_send_byte                     
     0000021D  _SIO_receive                       
     0000022E  _SetTile                           
     0000023D  _set_win_tile_xy                   
     00000242  _set_bkg_tile_xy                   
     00000265  _GetWinAddr                        
     0000026D  _GetBkgAddr                        
     0000027B  _state_init                        
     00000280  _state_update                      
     000002A2  _ui_time_masks                     
     000002AA  _ui_print_shift_char               
     0000032D  _ui_draw_frame_row                 
     00000336  .ui_draw_frame_row                 
     0000035F  _script_cmds                       vm_instructions
     00000593  _save_signature                    game_signature
     00000597  _start_scene_x                     
     00000599  _start_scene_y                     
     0000059B  _start_scene_dir                   
     0000059C  _start_scene                       
     0000059F  _start_player_move_speed           
     000005A0  _start_player_anim_tick            
     000005A1  _ui_fonts                          
     000005A4  _core_reset_hook                   main
     000005AC  _main                              main
     000005B4  _state_start_fns                   
     000005C6  _state_update_fns                  
     000005D8  _hUGE_init_banked                  hUGEDriver_obj
     000005DC  _hUGE_init                         hUGEDriver_obj
     000005E7  _hUGE_mute_channel_banked          hUGEDriver_obj
     000005EB  _hUGE_mute_channel                 hUGEDriver_obj
     000005F8  _hUGE_set_position_banked          hUGEDriver_obj
     000005FC  _hUGE_set_position                 hUGEDriver_obj
     00000605  hUGE_init                          hUGEDriver_obj
     0000065B  hUGE_mute_channel                  hUGEDriver_obj
     00000851  hUGE_set_position                  hUGEDriver_obj
     000009B9  _hUGE_dosound                      hUGEDriver_obj
     000009B9  _hUGE_dosound_banked               hUGEDriver_obj
     000009B9  hUGE_dosound                       hUGEDriver_obj
     00000CA8  _get_vram_byte                     
     00000CB5  _get_win_tile_xy                   
     00000CBD  _get_bkg_tile_xy                   
     00000CE4  _set_sprite_palette                CGB
     00000CE9  _set_bkg_palette                   CGB
     00000CEC  .set_palette                       CGB
     00000D0B  _set_sprite_palette_entry          CGB
     00000D10  _set_bkg_palette_entry             CGB
     00000D13  .set_palette_entry                 CGB
     00000D2F  _hide_sprites_range                Metasprites
     00000D5F  .sgb_check                         
ASxxxx Linker V03.00 + NoICE + sdld,  page 16.
Hexadecimal  [32-Bits]

Area                                    Addr        Size        Decimal Bytes (Attributes)
--------------------------------        ----        ----        ------- ----- ------------
_CODE                               00000200    00000C4E =        3150. bytes (REL,CON)

      Value  Global                              Global Defined In Module
      -----  --------------------------------   ------------------------
     00000D5F  _sgb_check                         
     00000DA7  _sgb_transfer                      
     00000DAC  .sgb_transfer                      
     00000DED  ___move_metasprite                 Metasprites
     00000E2C  _cpu_slow                          CGB
     00000E47  _cpu_fast                          CGB

ASxxxx Linker V03.00 + NoICE + sdld,  page 17.
Hexadecimal  [32-Bits]

Area                                    Addr        Size        Decimal Bytes (Attributes)
--------------------------------        ----        ----        ------- ----- ------------
_HEADER0                            00000000    00000001 =           1. bytes (ABS,CON)

      Value  Global                              Global Defined In Module
      -----  --------------------------------   ------------------------
     00000020  .call_hl                           Runtime

ASxxxx Linker V03.00 + NoICE + sdld,  page 18.
Hexadecimal  [32-Bits]

Area                                    Addr        Size        Decimal Bytes (Attributes)
--------------------------------        ----        ----        ------- ----- ------------
_HEADER1                            00000000    00000005 =           5. bytes (ABS,CON)

      Value  Global                              Global Defined In Module
      -----  --------------------------------   ------------------------
     00000028  .MemsetSmall                       Runtime

ASxxxx Linker V03.00 + NoICE + sdld,  page 19.
Hexadecimal  [32-Bits]

Area                                    Addr        Size        Decimal Bytes (Attributes)
--------------------------------        ----        ----        ------- ----- ------------
_HEADER2                            00000000    00000007 =           7. bytes (ABS,CON)

      Value  Global                              Global Defined In Module
      -----  --------------------------------   ------------------------
     00000030  .MemcpySmall                       Runtime

ASxxxx Linker V03.00 + NoICE + sdld,  page 20.
Hexadecimal  [32-Bits]

Area                                    Addr        Size        Decimal Bytes (Attributes)
--------------------------------        ----        ----        ------- ----- ------------
_HEADER3                            00000000    00000008 =           8. bytes (ABS,CON)

      Value  Global                              Global Defined In Module
      -----  --------------------------------   ------------------------
ASxxxx Linker V03.00 + NoICE + sdld,  page 21.
Hexadecimal  [32-Bits]

Area                                    Addr        Size        Decimal Bytes (Attributes)
--------------------------------        ----        ----        ------- ----- ------------
_HEADER4                            00000000    0000004E =          78. bytes (ABS,CON)

      Value  Global                              Global Defined In Module
      -----  --------------------------------   ------------------------
     00000080  .int                               Runtime
     0000008F  _wait_int_handler                  Runtime
     0000009C  __standard_VBL_handler             Runtime
     000000AC  _refresh_OAM                       Runtime

ASxxxx Linker V03.00 + NoICE + sdld,  page 22.
Hexadecimal  [32-Bits]

Area                                    Addr        Size        Decimal Bytes (Attributes)
--------------------------------        ----        ----        ------- ----- ------------
_HEADER5                            00000000    00000002 =           2. bytes (ABS,CON)

      Value  Global                              Global Defined In Module
      -----  --------------------------------   ------------------------
ASxxxx Linker V03.00 + NoICE + sdld,  page 23.
Hexadecimal  [32-Bits]

Area                                    Addr        Size        Decimal Bytes (Attributes)
--------------------------------        ----        ----        ------- ----- ------------
_HEADER6                            00000000    00000030 =          48. bytes (ABS,CON)

      Value  Global                              Global Defined In Module
      -----  --------------------------------   ------------------------
ASxxxx Linker V03.00 + NoICE + sdld,  page 24.
Hexadecimal  [32-Bits]

Area                                    Addr        Size        Decimal Bytes (Attributes)
--------------------------------        ----        ----        ------- ----- ------------
_HEADER7                            00000000    00000006 =           6. bytes (ABS,CON)

      Value  Global                              Global Defined In Module
      -----  --------------------------------   ------------------------
ASxxxx Linker V03.00 + NoICE + sdld,  page 25.
Hexadecimal  [32-Bits]

Area                                    Addr        Size        Decimal Bytes (Attributes)
--------------------------------        ----        ----        ------- ----- ------------
_HEADER8                            00000000    00000003 =           3. bytes (ABS,CON)

      Value  Global                              Global Defined In Module
      -----  --------------------------------   ------------------------
ASxxxx Linker V03.00 + NoICE + sdld,  page 26.
Hexadecimal  [32-Bits]

Area                                    Addr        Size        Decimal Bytes (Attributes)
--------------------------------        ----        ----        ------- ----- ------------
_HEADER9                            00000000    00000001 =           1. bytes (ABS,CON)

      Value  Global                              Global Defined In Module
      -----  --------------------------------   ------------------------
ASxxxx Linker V03.00 + NoICE + sdld,  page 27.
Hexadecimal  [32-Bits]

Area                                    Addr        Size        Decimal Bytes (Attributes)
--------------------------------        ----        ----        ------- ----- ------------
_HEADERa                            00000000    00000001 =           1. bytes (ABS,CON)

      Value  Global                              Global Defined In Module
      -----  --------------------------------   ------------------------
ASxxxx Linker V03.00 + NoICE + sdld,  page 28.
Hexadecimal  [32-Bits]

Area                                    Addr        Size        Decimal Bytes (Attributes)
--------------------------------        ----        ----        ------- ----- ------------
_HEADERb                            00000000    00000001 =           1. bytes (ABS,CON)

      Value  Global                              Global Defined In Module
      -----  --------------------------------   ------------------------
ASxxxx Linker V03.00 + NoICE + sdld,  page 29.
Hexadecimal  [32-Bits]

Area                                    Addr        Size        Decimal Bytes (Attributes)
--------------------------------        ----        ----        ------- ----- ------------
_HEADERc                            00000000    00000002 =           2. bytes (ABS,CON)

      Value  Global                              Global Defined In Module
      -----  --------------------------------   ------------------------
ASxxxx Linker V03.00 + NoICE + sdld,  page 30.
Hexadecimal  [32-Bits]

Area                                    Addr        Size        Decimal Bytes (Attributes)
--------------------------------        ----        ----        ------- ----- ------------
_HEADERd                            00000000    00000001 =           1. bytes (ABS,CON)

      Value  Global                              Global Defined In Module
      -----  --------------------------------   ------------------------
ASxxxx Linker V03.00 + NoICE + sdld,  page 31.
Hexadecimal  [32-Bits]

Area                                    Addr        Size        Decimal Bytes (Attributes)
--------------------------------        ----        ----        ------- ----- ------------
_HEADERe                            00000000    00000001 =           1. bytes (ABS,CON)

      Value  Global                              Global Defined In Module
      -----  --------------------------------   ------------------------
ASxxxx Linker V03.00 + NoICE + sdld,  page 32.
Hexadecimal  [32-Bits]

Area                                    Addr        Size        Decimal Bytes (Attributes)
--------------------------------        ----        ----        ------- ----- ------------
_HEADERf                            00000000    00000002 =           2. bytes (ABS,CON)

      Value  Global                              Global Defined In Module
      -----  --------------------------------   ------------------------
ASxxxx Linker V03.00 + NoICE + sdld,  page 33.
Hexadecimal  [32-Bits]

Area                                    Addr        Size        Decimal Bytes (Attributes)
--------------------------------        ----        ----        ------- ----- ------------
_HEADER10                           00000000    00000082 =         130. bytes (ABS,CON)

      Value  Global                              Global Defined In Module
      -----  --------------------------------   ------------------------
     00000150  .reset                             Runtime
     00000150  _reset                             Runtime
     00000157  .code_start                        Runtime
     000001B7  _exit                              Runtime
     000001BB  _set_interrupts                    Runtime

ASxxxx Linker V03.00 + NoICE + sdld,  page 34.
Hexadecimal  [32-Bits]

Area                                    Addr        Size        Decimal Bytes (Attributes)
--------------------------------        ----        ----        ------- ----- ------------
_HEADER11                           00000000    00000001 =           1. bytes (ABS,CON)

      Value  Global                              Global Defined In Module
      -----  --------------------------------   ------------------------
ASxxxx Linker V03.00 + NoICE + sdld,  page 35.
Hexadecimal  [32-Bits]

Area                                    Addr        Size        Decimal Bytes (Attributes)
--------------------------------        ----        ----        ------- ----- ------------
_HOME                               00000E4E    00002C81 =       11393. bytes (REL,CON)

      Value  Global                              Global Defined In Module
      -----  --------------------------------   ------------------------
     00000E4E  .memset_simple                     Runtime
     00000E57  .memcpy_simple                     Runtime
     00000E74  .remove_VBL                        Runtime
     00000E77  .remove_int                        Runtime
     00000E94  .add_VBL                           Runtime
     00000E97  .add_int                           Runtime
     00000EA2  .wait_vbl_done                     Runtime
     00000EA2  _wait_vbl_done                     Runtime
     00000EB2  .display_off                       Runtime
     00000EB2  _display_off                       Runtime
     00000ECA  _remove_VBL                        Runtime
     00000ED5  _add_VBL                           Runtime
     00000EE0  _actors_update                     actor
     000012E9  _SetBankedBkgData                  bankdata
     00001305  _SetBankedSpriteData               bankdata
     00001321  _SetBankedBkgTiles                 bankdata
     0000133D  _SetBankedWinTiles                 bankdata
     00001359  _ReadBankedFarPtr                  bankdata
     00001380  _ReadBankedUWORD                   bankdata
     0000139C  _MemcpyBanked                      bankdata
     000013B8  _MemcpyVRAMBanked                  bankdata
     000013D4  _IndexOfFarPtr                     bankdata
     0000146A  _camera_update                     camera
     0000159D  _load_animations                   data_manager
     000015FC  _events_update                     events
     000016CE  _timers_update                     events
     00001756  _input_update                      input
     00001786  .sio_ISR                           
     000017E0  .timer_ISR                         
     000017F5  _simple_LCD_isr                    interrupts
     00001871  _fullscreen_LCD_isr                interrupts
     0000189D  _VBL_isr                           interrupts
     000018E7  _isqrt                             math
     0000193D  _sine_wave                         math
     00001A3D  _dir_lookup                        math
     00001A45  _dir_angle_lookup                  math
     00001A49  _hUGETrackerRoutine                music_manager
     00001A75  _music_events_update               music_manager
     00001AF7  _music_play_isr                    music_manager
     00001B9D  _parallax_LCD_isr                  parallax
     00001BDA  _projectiles_update                projectiles
     00002079  _projectiles_render                projectiles
     000021EC  _scroll_load_pending_row           scroll
     00002278  _scroll_load_row                   scroll
     000022F2  _scroll_load_col                   scroll
     0000235D  _scroll_load_pending_col           scroll
     000023EE  _set_bkg_submap                    
     00002431  _set_xy_win_submap                 
     0000245E  .set_xy_win_submap                 
     00002467  .set_xy_bkg_submap                 
ASxxxx Linker V03.00 + NoICE + sdld,  page 36.
Hexadecimal  [32-Bits]

Area                                    Addr        Size        Decimal Bytes (Attributes)
--------------------------------        ----        ----        ------- ----- ------------
_HOME                               00000E4E    00002C81 =       11393. bytes (REL,CON)

      Value  Global                              Global Defined In Module
      -----  --------------------------------   ------------------------
     00002476  .set_xy_submap                     
     000024BC  _sfx_play_isr                      sfx_player
     0000258F  _on_SIO_receive                    sio
     000025D0  _SIO_update                        sio
     00002637  _ui_update                         ui
     00002766  _vm_sgb_transfer                   vm_sgb
     000027B4  _vm_load_text                      vm_ui
     00002A09  _vm_switch                         vm
     00002B0C  _vm_beginthread                    vm
     00002C31  _vm_rpn                            vm
     00003373  _vm_get_far                        vm
     000033DD  _vm_call_native                    vm
     000033F0  _VM_STEP                           vm
     0000345E  _script_runner_update              vm
     000035C9  _fill_win_rect                     
     000035DB  _rand                              
     000035DB  _randw                             
     00003606  _initrand                          
     00003608  .initrand                          
     00003611  _get_bkg_data                      
     00003611  _get_win_data                      
     0000365E  _get_sprite_data                   
     0000368E  __mulsuchar                        mul
     00003698  __muluschar                        mul
     000036A2  __mulschar                         mul
     000036B4  __muluchar                         mul
     000036C0  __mulint                           mul
     000036E6  _abs                               abs
     000036F5  _set_win_tiles                     
     00003709  _set_tile_data                     
     0000370E  _set_bkg_data                      
     0000370E  _set_win_data                      
     00003716  _set_sprite_data                   
     00003746  _reverse                           reverse
     0000377A  ___call__banked                    far_ptr
     00003797  _to_far_ptr                        far_ptr
     000037D0  _add_LCD                           
     000037DB  .add_LCD                           
     000037E1  _remove_LCD                        
     000037EC  .remove_LCD                        
     000037F2  .fill_rect_wtt                     
     000037FB  .fill_rect_btt                     
     00003848  .copy_vram                         
     0000385C  _get_data                          
     0000385C  _set_data                          
     0000385C  _vmemcpy                           
     0000386F  _fill_bkg_rect                     
     00003881  .padup                             
     00003881  _waitpadup                         
     00003891  .jpad                              
     00003891  _joypad                            
ASxxxx Linker V03.00 + NoICE + sdld,  page 37.
Hexadecimal  [32-Bits]

Area                                    Addr        Size        Decimal Bytes (Attributes)
--------------------------------        ----        ----        ------- ----- ------------
_HOME                               00000E4E    00002C81 =       11393. bytes (REL,CON)

      Value  Global                              Global Defined In Module
      -----  --------------------------------   ------------------------
     000038B9  _waitpad                           
     000038BC  .wait_pad                          
     000038C3  ___sdcc_call_hl                    call_hl
     000038C4  ___memcpy                          memcpy
     000038C4  _memcpy                            memcpy
     00003907  _memset                            memset
     0000393A  .set_xy_wtt                        SetTileMap
     00003943  .set_xy_btt                        SetTileMap
     00003952  .set_xy_tt                         SetTileMap
     00003994  __divsuchar                        div
     000039A1  __modsuchar                        div
     000039AB  __divuschar                        div
     000039BD  __moduschar                        div
     000039CD  __divschar                         div
     000039D9  __modschar                         div
     000039E3  __divsint                          div
     000039F4  __modsint                          div
     00003A03  __divuchar                         div
     00003A0F  __moduchar                         div
     00003A19  __divuint                          div
     00003A2A  __moduint                          div
     00003A39  .div8                              div
     00003A39  .mod8                              div
     00003A41  .div16                             div
     00003A41  .mod16                             div
     00003A77  .divu8                             div
     00003A77  .modu8                             div
     00003A7A  .divu16                            div
     00003A7A  .modu16                            div
     00003ABB  _set_bkg_tiles                     

ASxxxx Linker V03.00 + NoICE + sdld,  page 38.
Hexadecimal  [32-Bits]

Area                                    Addr        Size        Decimal Bytes (Attributes)
--------------------------------        ----        ----        ------- ----- ------------
_INITIALIZER                        00003ACF    00000019 =          25. bytes (REL,CON)

      Value  Global                              Global Defined In Module
      -----  --------------------------------   ------------------------
ASxxxx Linker V03.00 + NoICE + sdld,  page 39.
Hexadecimal  [32-Bits]

Area                                    Addr        Size        Decimal Bytes (Attributes)
--------------------------------        ----        ----        ------- ----- ------------
_GSINIT                             00003AE8    00000027 =          39. bytes (REL,CON)

      Value  Global                              Global Defined In Module
      -----  --------------------------------   ------------------------
     00003AE8  gsinit                             Runtime

ASxxxx Linker V03.00 + NoICE + sdld,  page 40.
Hexadecimal  [32-Bits]

Area                                    Addr        Size        Decimal Bytes (Attributes)
--------------------------------        ----        ----        ------- ----- ------------
_GSFINAL                            00003B0F    00000001 =           1. bytes (REL,CON)

      Value  Global                              Global Defined In Module
      -----  --------------------------------   ------------------------
ASxxxx Linker V03.00 + NoICE + sdld,  page 41.
Hexadecimal  [32-Bits]

Area                                    Addr        Size        Decimal Bytes (Attributes)
--------------------------------        ----        ----        ------- ----- ------------
_DATA                               0000C0A0    0000197F =        6527. bytes (REL,CON)

      Value  Global                              Global Defined In Module
      -----  --------------------------------   ------------------------
     0000C0A0  __cpu                              Runtime
     0000C0A1  __is_GBA                           Runtime
     0000C0A2  .mode                              Runtime
     0000C0A3  .sys_time                          Runtime
     0000C0A3  _sys_time                          Runtime
     0000C0A5  .int_0x40                          Runtime
     0000C0B9  _actors                            actor
     0000C4FD  _actors_active_head                actor
     0000C4FF  _actors_active_tail                actor
     0000C501  _actors_inactive_head              actor
     0000C503  _screen_x                          actor
     0000C504  _screen_y                          actor
     0000C505  _invalid                           actor
     0000C507  _player_moving                     actor
     0000C508  _player_iframes                    actor
     0000C509  _player_collision_actor            actor
     0000C50B  _emote_actor                       actor
     0000C50D  _emote_timer                       actor
     0000C50E  _allocated_hardware_sprites        actor
     0000C51A  _camera_x                          camera
     0000C51C  _camera_y                          camera
     0000C51E  _camera_offset_x                   camera
     0000C51F  _camera_offset_y                   camera
     0000C520  _camera_deadzone_x                 camera
     0000C521  _camera_deadzone_y                 camera
     0000C522  _camera_settings                   camera
     0000C526  _current_scene                     data_manager
     0000C529  _image_bank                        data_manager
     0000C52A  _image_ptr                         data_manager
     0000C52C  _image_attr_bank                   data_manager
     0000C52D  _image_attr_ptr                    data_manager
     0000C52F  _collision_bank                    data_manager
     0000C530  _collision_ptr                     data_manager
     0000C532  _image_tile_width                  data_manager
     0000C533  _image_tile_height                 data_manager
     0000C534  _image_width                       data_manager
     0000C536  _image_height                      data_manager
     0000C538  _sprites_len                       data_manager
     0000C539  _actors_len                        data_manager
     0000C53A  _projectiles_len                   data_manager
     0000C53B  _player_sprite_len                 data_manager
     0000C53C  _scene_type                        data_manager
     0000C53D  _scene_LCD_type                    data_manager
     0000C53E  _scene_stack                       data_manager
     0000C57E  _scene_stack_ptr                   data_manager
     0000C580  _scene_sprites_base_tiles          data_manager
     0000C5C0  _input_events                      events
     0000C5E8  _input_slots                       events
     0000C5F0  _timer_events                      events
     0000C604  _timer_values                      events
ASxxxx Linker V03.00 + NoICE + sdld,  page 42.
Hexadecimal  [32-Bits]

Area                                    Addr        Size        Decimal Bytes (Attributes)
--------------------------------        ----        ----        ------- ----- ------------
_DATA                               0000C0A0    0000197F =        6527. bytes (REL,CON)

      Value  Global                              Global Defined In Module
      -----  --------------------------------   ------------------------
     0000C60C  _fade_running                      fade_manager
     0000C60D  _fade_frames_per_step              fade_manager
     0000C60E  _fade_timer                        fade_manager
     0000C616  _joypads                           input
     0000C61B  _frame_joy                         input
     0000C61C  _last_joy                          input
     0000C61D  _recent_joy                        input
     0000C61E  _SIO_status                        
     0000C61F  _link_byte_sent                    
     0000C620  _link_next_mode                    
     0000C621  _save_blob_size                    load_save
     0000C623  _routine_queue                     music_manager
     0000C627  _routine_queue_head                music_manager
     0000C628  _routine_queue_tail                music_manager
     0000C629  _music_events                      music_manager
     0000C63D  _music_current_track_bank          music_manager
     0000C63E  _music_mute_flag                   music_manager
     0000C63F  _music_mute_mask                   music_manager
     0000C640  _music_next_track                  music_manager
     0000C642  _music_current_track               music_manager
     0000C644  _music_play_isr_counter            music_manager
     0000C645  _music_play_isr_pause              music_manager
     0000C646  _music_global_mute_mask            music_manager
     0000C647  _music_sfx_priority                music_manager
     0000C648  _DMG_palette                       palette
     0000C64B  _SprPalette                        palette
     0000C68B  _parallax_rows                     parallax
     0000C69D  _parallax_row                      parallax
     0000C69F  _projectiles                       projectiles
     0000C758  _projectile_defs                   projectiles
     0000C7CB  _projectiles_active_head           projectiles
     0000C7CD  _projectiles_inactive_head         projectiles
     0000C7D4  _scroll_x                          scroll
     0000C7D6  _scroll_y                          scroll
     0000C7D8  _draw_scroll_x                     scroll
     0000C7DA  _draw_scroll_y                     scroll
     0000C7DC  _scroll_x_max                      scroll
     0000C7DE  _scroll_y_max                      scroll
     0000C7E0  _scroll_offset_x                   scroll
     0000C7E1  _scroll_offset_y                   scroll
     0000C7E2  _pending_h_x                       scroll
     0000C7E3  _pending_h_y                       scroll
     0000C7E4  _pending_h_i                       scroll
     0000C7E5  _pending_w_x                       scroll
     0000C7E6  _pending_w_y                       scroll
     0000C7E7  _pending_w_i                       scroll
     0000C7E8  _current_row                       scroll
     0000C7EA  _new_row                           scroll
     0000C7EC  _current_col                       scroll
     0000C7EE  _new_col                           scroll
     0000C7F0  .image_tile_width                  
ASxxxx Linker V03.00 + NoICE + sdld,  page 43.
Hexadecimal  [32-Bits]

Area                                    Addr        Size        Decimal Bytes (Attributes)
--------------------------------        ----        ----        ------- ----- ------------
_DATA                               0000C0A0    0000197F =        6527. bytes (REL,CON)

      Value  Global                              Global Defined In Module
      -----  --------------------------------   ------------------------
     0000C7F1  _sfx_play_bank                     sfx_player
     0000C7F2  _sfx_play_sample                   sfx_player
     0000C7F4  _sfx_frame_skip                    sfx_player
     0000C7F5  _link_operation_mode               sio
     0000C7F6  _link_packet                       sio
     0000C816  _link_packet_len                   sio
     0000C817  _link_packet_ptr                   sio
     0000C819  _link_packet_received              sio
     0000C81A  _link_packet_snd_len               sio
     0000C81B  _link_packet_snd_ptr               sio
     0000C81D  _link_packet_sent                  sio
     0000C81E  __is_CGB                           system
     0000C81F  __is_SGB                           system
     0000C820  __current_ram_bank                 system
     0000C821  _triggers                          trigger
     0000C919  _last_trigger_tx                   trigger
     0000C91A  _last_trigger_ty                   trigger
     0000C91B  _last_trigger                      trigger
     0000C91C  _win_pos_x                         ui
     0000C91D  _win_dest_pos_x                    ui
     0000C91E  _win_pos_y                         ui
     0000C91F  _win_dest_pos_y                    ui
     0000C920  _win_speed                         ui
     0000C921  _text_drawn                        ui
     0000C922  _current_text_speed                ui
     0000C923  _text_wait                         ui
     0000C924  _text_options                      ui
     0000C925  _text_in_speed                     ui
     0000C926  _text_out_speed                    ui
     0000C927  _text_draw_speed                   ui
     0000C928  _text_ff_joypad                    ui
     0000C929  _text_ff                           ui
     0000C92A  _text_bkg_fill                     ui
     0000C92B  _ui_text_data                      ui
     0000CA35  _vwf_current_mask                  ui
     0000CA36  _vwf_current_rotate                ui
     0000CA37  _vwf_inverse_map                   ui
     0000CA38  _vwf_direction                     ui
     0000CA39  _vwf_current_font_desc             ui
     0000CA41  _vwf_current_font_bank             ui
     0000CA42  _vwf_current_font_idx              ui
     0000CA43  _text_render_base_addr             ui
     0000CA45  _text_scroll_addr                  ui
     0000CA47  _text_scroll_width                 ui
     0000CA48  _text_scroll_height                ui
     0000CA49  _text_scroll_fill                  ui
     0000CA4A  _text_sound_mask                   ui
     0000CA4B  _text_sound_bank                   ui
     0000CA4C  _text_sound_data                   ui
     0000CA4E  _overlay_priority                  ui
     0000CA55  __itoa_fmt_len                     vm_ui_a
ASxxxx Linker V03.00 + NoICE + sdld,  page 44.
Hexadecimal  [32-Bits]

Area                                    Addr        Size        Decimal Bytes (Attributes)
--------------------------------        ----        ----        ------- ----- ------------
_DATA                               0000C0A0    0000197F =        6527. bytes (REL,CON)

      Value  Global                              Global Defined In Module
      -----  --------------------------------   ------------------------
     0000CA56  .itoa_fmt_buf                      vm_ui_a
     0000CA59  _CTXS                              vm
     0000CB89  _first_ctx                         vm
     0000CB8B  _free_ctxs                         vm
     0000CB8D  _old_executing_ctx                 vm
     0000CB8F  _executing_ctx                     vm
     0000CB91  _vm_lock_state                     vm
     0000CB92  _vm_loaded_state                   vm
     0000CB93  _vm_exception_code                 vm
     0000CB94  _vm_exception_params_length        vm
     0000CB95  _vm_exception_params_bank          vm
     0000CB96  _vm_exception_params_offset        vm
     0000CB99  _script_memory                     vm
     0000D99F  _grounded                          platform
     0000D9A0  _on_ladder                         platform
     0000D9A1  _pl_vel_x                          platform
     0000D9A3  _pl_vel_y                          platform
     0000D9A5  _plat_min_vel                      platform
     0000D9A7  _plat_walk_vel                     platform
     0000D9A9  _plat_climb_vel                    platform
     0000D9AB  _plat_run_vel                      platform
     0000D9AD  _plat_walk_acc                     platform
     0000D9AF  _plat_run_acc                      platform
     0000D9B1  _plat_dec                          platform
     0000D9B3  _plat_jump_vel                     platform
     0000D9B5  _plat_grav                         platform
     0000D9B7  _plat_hold_grav                    platform
     0000D9B9  _plat_max_fall_vel                 platform
     0000D9BB  _shooter_reached_end               shmup
     0000D9BC  _shooter_dest                      shmup
     0000D9BE  _shooter_direction                 shmup
     0000D9BF  _topdown_grid                      topdown
     0000D9C0  ___rand_seed                       
     0000D9DE  _hUGE_current_wave                 hUGEDriver_obj
     0000D9DE  hUGE_current_wave                  hUGEDriver_obj
     0000D9DF  _hUGE_mute_mask                    hUGEDriver_obj
     0000DA08  ___call_banked_addr                far_ptr
     0000DA08  ___call_banked_ptr                 far_ptr
     0000DA0A  ___call_banked_bank                far_ptr
     0000DA0C  .int_0x48                          
     0000DA1C  ___current_metasprite              Metasprites
     0000DA1E  ___current_base_tile               Metasprites

ASxxxx Linker V03.00 + NoICE + sdld,  page 45.
Hexadecimal  [32-Bits]

Area                                    Addr        Size        Decimal Bytes (Attributes)
--------------------------------        ----        ----        ------- ----- ------------
_INITIALIZED                        0000DA1F    00000019 =          25. bytes (REL,CON)

      Value  Global                              Global Defined In Module
      -----  --------------------------------   ------------------------
     0000DA1F  _fade_style                        fade_manager
     0000DA20  _game_time                         game_time
     0000DA21  _PRN_PKT_START                     gbprinter
     0000DA2F  _hide_sprites                      interrupts
     0000DA30  _show_actors_on_overlay            interrupts
     0000DA31  _overlay_cut_scanline              interrupts
     0000DA32  _triggers_len                      trigger
     0000DA33  _exchange_state                    vm_sio
     0000DA34  _last_hit_trigger                  pointnclick
     0000DA35  _shooter_scroll_speed              shmup
     0000DA36  ___render_shadow_OAM               Metasprites
     0000DA37  __map_tile_offset                  SetTileMap
ASxxxx Linker V03.00 + NoICE + sdld,  page 46.
Hexadecimal  [32-Bits]

Area                                    Addr        Size        Decimal Bytes (Attributes)
--------------------------------        ----        ----        ------- ----- ------------
_HRAM12                             00000000    00000003 =           3. bytes (ABS,CON)

      Value  Global                              Global Defined In Module
      -----  --------------------------------   ------------------------
     0000FF90  __current_bank                     Runtime
     0000FF92  __shadow_OAM_base                  Runtime

ASxxxx Linker V03.00 + NoICE + sdld,  page 47.
Hexadecimal  [32-Bits]

Area                                    Addr        Size        Decimal Bytes (Attributes)
--------------------------------        ----        ----        ------- ----- ------------
_EHL_TRAMPOLINE0                    00000000    00000011 =          17. bytes (ABS,CON)

      Value  Global                              Global Defined In Module
      -----  --------------------------------   ------------------------
     00000008  ___sdcc_bcall_ehl                  

ASxxxx Linker V03.00 + NoICE + sdld,  page 48.
Hexadecimal  [32-Bits]

Area                                    Addr        Size        Decimal Bytes (Attributes)
--------------------------------        ----        ----        ------- ----- ------------
_CODE_1                             00014000    00004000 =       16384. bytes (REL,CON)

      Value  Global                              Global Defined In Module
      -----  --------------------------------   ------------------------
     00014000  ___func_ACTOR                      actor
     00014000  _actors_init                       actor
     0001403A  _emote_offsets                     actor
     00014049  _emote_metasprite                  actor
     00014055  _player_init                       actor
     0001406A  _deactivate_actor                  actor
     000141DB  _activate_actor                    actor
     0001431A  _activate_actors_in_row            actor
     00014411  _activate_actors_in_col            actor
     00014562  _actor_set_frames                  actor
     000145B6  _actor_set_frame_offset            actor
     000145F3  _actor_get_frame_offset            actor
     00014606  _actor_set_anim_idle               actor
     00014634  _actor_set_anim_moving             actor
     00014665  _actor_set_dir                     actor
     000146CA  _actor_at_tile                     actor
     000147A0  _actor_in_front_of_player          actor
     00014887  _actor_overlapping_player          actor
     00014B20  _actor_overlapping_bb              actor
     00014D3F  _actors_handle_player_collision    actor
     00014DCA  _check_collision_in_direction      actor
     000155BA  _ui_swap_tiles                     
     00015604  _ui_print_make_mask_lr             
     00015620  _ui_print_make_mask_rl             
     0001563C  _ui_init                           ui
     0001570B  _ui_load_tiles                     ui
     00015762  _ui_draw_frame                     ui
     000157F6  _ui_print_reset                    ui
     0001584C  _ui_set_start_tile                 ui
     00015878  _ui_print_render                   ui
     00015B19  _ui_draw_text_buffer_char          ui
     0001600D  _ui_run_menu                       ui
     000162CB  _ui_run_modal                      ui
     0001639A  ___func_VM_ACTOR                   vm_actor
     0001639A  _vm_actor_move_to                  vm_actor
     00016D37  _vm_actor_move_cancel              vm_actor
     00016D6D  _vm_actor_activate                 vm_actor
     00016DBF  _vm_actor_deactivate               vm_actor
     00016E10  _vm_actor_terminate_update         vm_actor
     00016E57  _vm_actor_set_dir                  vm_actor
     00016EA0  _vm_actor_set_anim                 vm_actor
     00016F2D  _vm_actor_set_pos                  vm_actor
     00016FA7  _vm_actor_get_pos                  vm_actor
     00017016  _vm_actor_get_dir                  vm_actor
     00017090  _vm_actor_get_angle                vm_actor
     00017111  _vm_actor_emote                    vm_actor
     000171D5  _vm_actor_set_bounds               vm_actor
     00017233  _vm_actor_set_spritesheet          vm_actor
     00017302  _vm_actor_replace_tile             vm_actor
     0001736C  _vm_actor_set_anim_tick            vm_actor
ASxxxx Linker V03.00 + NoICE + sdld,  page 49.
Hexadecimal  [32-Bits]

Area                                    Addr        Size        Decimal Bytes (Attributes)
--------------------------------        ----        ----        ------- ----- ------------
_CODE_1                             00014000    00004000 =       16384. bytes (REL,CON)

      Value  Global                              Global Defined In Module
      -----  --------------------------------   ------------------------
     000173AA  _vm_actor_set_move_speed           vm_actor
     000173E8  _vm_actor_set_anim_frame           vm_actor
     0001742C  _vm_actor_get_anim_frame           vm_actor
     00017475  _vm_actor_set_anim_set             vm_actor
     00017502  _vm_actor_set_spritesheet_by_ref   vm_actor
     00017610  _vm_actor_set_flags                vm_actor
     000176BE  ___func_VM_SGB                     vm_sgb
     000176BE  ___func_bg_bg_endscreen_sad_tile   bg_bg_endscreen_sad_tileset
     000176BE  _bg_bg_endscreen_sad_tileset       bg_bg_endscreen_sad_tileset
     00017FF0  ___func_cursor_image               cursor_image
     00017FF0  _cursor_image                      cursor_image

ASxxxx Linker V03.00 + NoICE + sdld,  page 50.
Hexadecimal  [32-Bits]

Area                                    Addr        Size        Decimal Bytes (Attributes)
--------------------------------        ----        ----        ------- ----- ------------
_CODE_11                            000B4000    0000081B =        2075. bytes (REL,CON)

      Value  Global                              Global Defined In Module
      -----  --------------------------------   ------------------------
     000B4000  _bootstrap_script                  
     000B400B  _input_init                        input
     000B4031  _remove_LCD_ISRs                   interrupts
     000B4052  _parallax_init                     parallax
     000B4076  _actor_20_update                   actor_20_update
     000B408A  _actor_22_interact                 actor_22_interact
     000B40A6  _actor_26_interact                 actor_26_interact
     000B40C2  _actor_28_interact                 actor_28_interact
     000B40DE  _actor_29_interact                 actor_29_interact
     000B40FA  _actor_31_interact                 actor_31_interact
     000B4116  _actor_34_interact                 actor_34_interact
     000B4132  _actor_35_interact                 actor_35_interact
     000B414E  _actor_36_update                   actor_36_update
     000B4162  _actor_37_update                   actor_37_update
     000B4176  _actor_39_interact                 actor_39_interact
     000B4192  _actor_45_interact                 actor_45_interact
     000B41AE  _actor_47_interact                 actor_47_interact
     000B41CA  _actor_48_interact                 actor_48_interact
     000B41E6  _actor_51_interact                 actor_51_interact
     000B4202  _actor_51_update                   actor_51_update
     000B4237  _actor_52_interact                 actor_52_interact
     000B4253  _actor_52_update                   actor_52_update
     000B4288  _actor_53_interact                 actor_53_interact
     000B42A4  _actor_53_update                   actor_53_update
     000B42D9  _actor_54_update                   actor_54_update
     000B42ED  _actor_56_update                   actor_56_update
     000B4301  _actor_59_interact                 actor_59_interact
     000B431D  _actor_62_interact                 actor_62_interact
     000B4339  _actor_65_interact                 actor_65_interact
     000B4355  _actor_66_interact                 actor_66_interact
     000B4371  _actor_67_interact                 actor_67_interact
     000B438D  _actor_71_interact                 actor_71_interact
     000B43A9  _actor_71_update                   actor_71_update
     000B43DE  _actor_72_interact                 actor_72_interact
     000B43FA  _actor_72_update                   actor_72_update
     000B442F  _actor_73_interact                 actor_73_interact
     000B444B  _actor_73_update                   actor_73_update
     000B4480  ___func_bg_bg_creditscreen_theen   bg_bg_creditscreen_theend
     000B4480  _bg_bg_creditscreen_theend         bg_bg_creditscreen_theend
     000B448E  ___func_bg_bg_endscreen_happy      bg_bg_endscreen_happy
     000B448E  _bg_bg_endscreen_happy             bg_bg_endscreen_happy
     000B449C  ___func_bg_bg_endscreen_pee        bg_bg_endscreen_pee
     000B449C  _bg_bg_endscreen_pee               bg_bg_endscreen_pee
     000B44AA  ___func_bg_bg_endscreen_sad        bg_bg_endscreen_sad
     000B44AA  _bg_bg_endscreen_sad               bg_bg_endscreen_sad
     000B44B8  ___func_bg_bg_endscreen_shake      bg_bg_endscreen_shake
     000B44B8  _bg_bg_endscreen_shake             bg_bg_endscreen_shake
     000B44C6  ___func_bg_bg_endscreen            bg_bg_endscreen
     000B44C6  _bg_bg_endscreen                   bg_bg_endscreen
     000B44D4  ___func_bg_bg_level1               bg_bg_level1
ASxxxx Linker V03.00 + NoICE + sdld,  page 51.
Hexadecimal  [32-Bits]

Area                                    Addr        Size        Decimal Bytes (Attributes)
--------------------------------        ----        ----        ------- ----- ------------
_CODE_11                            000B4000    0000081B =        2075. bytes (REL,CON)

      Value  Global                              Global Defined In Module
      -----  --------------------------------   ------------------------
     000B44D4  _bg_bg_level1                      bg_bg_level1
     000B44E2  ___func_bg_bg_level2               bg_bg_level2
     000B44E2  _bg_bg_level2                      bg_bg_level2
     000B44F0  ___func_bg_bg_level3_longer_new    bg_bg_level3_longer_new
     000B44F0  _bg_bg_level3_longer_new           bg_bg_level3_longer_new
     000B44FE  ___func_bg_bg_openingscreen        bg_bg_openingscreen
     000B44FE  _bg_bg_openingscreen               bg_bg_openingscreen
     000B450C  ___func_bg_bg_startscreen_final    bg_bg_startscreen_final
     000B450C  _bg_bg_startscreen_final           bg_bg_startscreen_final
     000B451A  ___func_bg_credit_red              bg_credit_red
     000B451A  _bg_credit_red                     bg_credit_red
     000B4528  ___func_bg_credit_robin            bg_credit_robin
     000B4528  _bg_credit_robin                   bg_credit_robin
     000B4536  ___func_bg_credit_ryan             bg_credit_ryan
     000B4536  _bg_credit_ryan                    bg_credit_ryan
     000B4544  ___func_bg_credit_twinkie          bg_credit_twinkie
     000B4544  _bg_credit_twinkie                 bg_credit_twinkie
     000B4552  ___func_scene_0_triggers           scene_0_triggers
     000B4552  _scene_0_triggers                  scene_0_triggers
     000B457A  ___func_scene_18_actors            scene_18_actors
     000B457A  _scene_18_actors                   scene_18_actors
     000B45AE  ___func_scene_18_sprites           scene_18_sprites
     000B45AE  _scene_18_sprites                  scene_18_sprites
     000B45B1  ___func_scene_19_actors            scene_19_actors
     000B45B1  _scene_19_actors                   scene_19_actors
     000B45E5  ___func_scene_19_sprites           scene_19_sprites
     000B45E5  _scene_19_sprites                  scene_19_sprites
     000B45E8  ___func_scene_9_sprites            scene_9_sprites
     000B45E8  _scene_9_sprites                   scene_9_sprites
     000B45F1  ___func_scene_9_triggers           scene_9_triggers
     000B45F1  _scene_9_triggers                  scene_9_triggers
     000B4601  ___func_scene_parallax_example_s   scene_parallax_example_sprit
     000B4601  _scene_parallax_example_sprites    scene_parallax_example_sprit
     000B4610  ___func_scene_parallax_example_t   scene_parallax_example_trigg
     000B4610  _scene_parallax_example_triggers   scene_parallax_example_trigg
     000B4620  ___func_scene_title_screen         scene_title_screen
     000B4620  _scene_title_screen                scene_title_screen
     000B465B  _script_12                         script_12
     000B4662  _script_init_menu                  script_init_menu
     000B466C  _script_input_0                    script_input_0
     000B4672  _script_input_2                    script_input_2
     000B4678  _script_input_3                    script_input_3
     000B467E  ___func_sound_legacy_0             sound_legacy_0
     000B467E  _sound_legacy_0                    sound_legacy_0
     000B4691  ___func_sprite_chemical_cloud      sprite_chemical_cloud
     000B4691  _sprite_chemical_cloud_metasprit   sprite_chemical_cloud
     000B46A5  _sprite_chemical_cloud_metasprit   sprite_chemical_cloud
     000B46A7  _sprite_chemical_cloud_animation   sprite_chemical_cloud
     000B46B7  _sprite_chemical_cloud_animation   sprite_chemical_cloud
     000B46B9  _sprite_chemical_cloud             sprite_chemical_cloud
     000B46CC  ___func_sprite_cloud_player_spri   sprite_cloud_player_sprite
ASxxxx Linker V03.00 + NoICE + sdld,  page 52.
Hexadecimal  [32-Bits]

Area                                    Addr        Size        Decimal Bytes (Attributes)
--------------------------------        ----        ----        ------- ----- ------------
_CODE_11                            000B4000    0000081B =        2075. bytes (REL,CON)

      Value  Global                              Global Defined In Module
      -----  --------------------------------   ------------------------
     000B46CC  _sprite_cloud_player_sprite_meta   sprite_cloud_player_sprite
     000B46D8  _sprite_cloud_player_sprite_meta   sprite_cloud_player_sprite
     000B46DA  _sprite_cloud_player_sprite_anim   sprite_cloud_player_sprite
     000B46EA  _sprite_cloud_player_sprite_anim   sprite_cloud_player_sprite
     000B46EC  _sprite_cloud_player_sprite        sprite_cloud_player_sprite
     000B46FF  ___func_sprite_tree_stump          sprite_tree_stump
     000B46FF  _sprite_tree_stump_metasprite_0    sprite_tree_stump
     000B470F  _sprite_tree_stump_metasprites     sprite_tree_stump
     000B4711  _sprite_tree_stump_animations      sprite_tree_stump
     000B4721  _sprite_tree_stump_animations_lo   sprite_tree_stump
     000B4723  _sprite_tree_stump                 sprite_tree_stump
     000B4736  _spritesheet_none_metasprite       spritesheet_none
     000B473A  _spritesheet_none_metasprites      spritesheet_none
     000B473C  _spritesheet_none                  spritesheet_none
     000B474F  _trigger_0_interact                trigger_0_interact
     000B4758  _trigger_1_interact                trigger_1_interact
     000B4761  _trigger_2_interact                trigger_2_interact
     000B4787  _trigger_3_interact                trigger_3_interact
     000B4790  _trigger_4_interact                trigger_4_interact
     000B47B6  _trigger_40_interact               trigger_40_interact
     000B47DC  _trigger_5_interact                trigger_5_interact
     000B47E5  _trigger_6_interact                trigger_6_interact
     000B4801  _trigger_7_interact                trigger_7_interact
     000B480A  _logo_init                         logo
     000B481A  _logo_update                       logo
ASxxxx Linker V03.00 + NoICE + sdld,  page 53.
Hexadecimal  [32-Bits]

Area                                    Addr        Size        Decimal Bytes (Attributes)
--------------------------------        ----        ----        ------- ----- ------------
_CODE_7                             00074000    00003FFF =       16383. bytes (REL,CON)

      Value  Global                              Global Defined In Module
      -----  --------------------------------   ------------------------
     00074000  _camera_init                       camera
     0007401E  _camera_reset                      camera
     0007402E  _scroll_init                       scroll
     00074058  _scroll_reset                      scroll
     00074078  _scroll_update                     scroll
     0007418F  _scroll_viewport                   scroll
     0007463D  _scroll_repaint                    scroll
     0007464D  _scroll_render_rows                scroll
     000746D5  _scroll_queue_row                  scroll
     000746FA  _scroll_queue_col                  scroll
     00074746  ___func_VM_PALETTE                 vm_palette
     00074746  _vm_load_palette                   vm_palette
     000748FA  ___func_VM_UI                      vm_ui
     000748FA  _vm_display_text                   vm_ui
     00074968  _vm_switch_text_layer              vm_ui
     00074982  _vm_overlay_setpos                 vm_ui
     0007499C  _vm_overlay_wait                   vm_ui
     00074A2D  _vm_overlay_move_to                vm_ui
     00074A71  _vm_overlay_set_scroll             vm_ui
     00074AAE  _vm_overlay_clear                  vm_ui
     00074B87  _vm_overlay_show                   vm_ui
     00074BD5  _vm_choice                         vm_ui
     00074CF0  _vm_set_font                       vm_ui
     00074D21  _vm_overlay_scroll                 vm_ui
     00074D81  _vm_overlay_set_submap             vm_ui
     00074DF1  _vm_overlay_set_submap_ex          vm_ui
     00074EF4  _vm_overlay_set_map                vm_ui
     00075058  _vm_set_text_sound                 vm_ui
     00075071  ___func_bg_bg_level2_tilemap       bg_bg_level2_tilemap
     00075071  _bg_bg_level2_tilemap              bg_bg_level2_tilemap
     000760AE  _song_level3_Data                  song_level3_Data
     000768EC  _song_red_test_Data                song_red_test_Data
     00076901  ___func_scene_9_collisions         scene_9_collisions
     00076901  _scene_9_collisions                scene_9_collisions
     000771DD  _shmup_init                        shmup
     00077279  _shmup_update                      shmup
     000778F8  _topdown_init                      topdown
     0007798F  _topdown_update                    topdown

ASxxxx Linker V03.00 + NoICE + sdld,  page 54.
Hexadecimal  [32-Bits]

Area                                    Addr        Size        Decimal Bytes (Attributes)
--------------------------------        ----        ----        ------- ----- ------------
_CODE_8                             00084000    00003FFF =       16383. bytes (REL,CON)

      Value  Global                              Global Defined In Module
      -----  --------------------------------   ------------------------
     00084000  _core_reset                        core
     00084075  _process_VM                        core
     0008431C  _core_run                          core
     000843FE  _data_init                         load_save
     00084449  _save_points                       load_save
     000844A1  _data_slot_address                 load_save
     00084505  _data_save                         load_save
     000845EB  _data_load                         load_save
     000846FA  _data_clear                        load_save
     0008472B  _data_peek                         load_save
     000847D9  _projectiles_init                  projectiles
     00084819  _projectile_launch                 projectiles
     00084C22  _actor_18_update                   actor_18_update
     00084C36  ___func_bg_bg_endscreen_tileset    bg_bg_endscreen_tileset
     00084C36  _bg_bg_endscreen_tileset           bg_bg_endscreen_tileset
     000857A1  _song_introcutscene_Data           song_introcutscene_Data
     00085D9F  _song_level2_Data                  song_level2_Data
     000862CD  _song_startmenu_Data               song_startmenu_Data
     000867FB  _song_victory_Data                 song_victory_Data
     00086810  ___func_scene_0_actors             scene_0_actors
     00086810  _scene_0_actors                    scene_0_actors
     00086C20  ___func_scene_9_actors             scene_9_actors
     00086C20  _scene_9_actors                    scene_9_actors
     00086EC4  ___func_sprite_0_peeanim_sad_til   sprite_0_peeanim_sad_tileset
     00086EC4  _sprite_0_peeanim_sad_tileset      sprite_0_peeanim_sad_tileset
     00087346  ___func_sprite_chemical_vat_rev_   sprite_chemical_vat_rev_ani_
     00087346  _sprite_chemical_vat_rev_ani_til   sprite_chemical_vat_rev_ani_
     00087808  ___func_sprite_gbs_font_small      sprite_gbs_font_small
     00087808  _sprite_gbs_font_small_metasprit   sprite_gbs_font_small
     0008781C  _sprite_gbs_font_small_metasprit   sprite_gbs_font_small
     00087830  _sprite_gbs_font_small_metasprit   sprite_gbs_font_small
     00087844  _sprite_gbs_font_small_metasprit   sprite_gbs_font_small
     00087858  _sprite_gbs_font_small_metasprit   sprite_gbs_font_small
     0008786C  _sprite_gbs_font_small_metasprit   sprite_gbs_font_small
     00087880  _sprite_gbs_font_small_metasprit   sprite_gbs_font_small
     00087894  _sprite_gbs_font_small_metasprit   sprite_gbs_font_small
     000878A8  _sprite_gbs_font_small_metasprit   sprite_gbs_font_small
     000878BC  _sprite_gbs_font_small_metasprit   sprite_gbs_font_small
     000878D0  _sprite_gbs_font_small_metasprit   sprite_gbs_font_small
     000878E4  _sprite_gbs_font_small_metasprit   sprite_gbs_font_small
     000878F8  _sprite_gbs_font_small_metasprit   sprite_gbs_font_small
     0008790C  _sprite_gbs_font_small_metasprit   sprite_gbs_font_small
     00087920  _sprite_gbs_font_small_metasprit   sprite_gbs_font_small
     00087934  _sprite_gbs_font_small_metasprit   sprite_gbs_font_small
     00087948  _sprite_gbs_font_small_metasprit   sprite_gbs_font_small
     0008795C  _sprite_gbs_font_small_metasprit   sprite_gbs_font_small
     00087970  _sprite_gbs_font_small_metasprit   sprite_gbs_font_small
     00087984  _sprite_gbs_font_small_metasprit   sprite_gbs_font_small
     00087998  _sprite_gbs_font_small_metasprit   sprite_gbs_font_small
     000879AC  _sprite_gbs_font_small_metasprit   sprite_gbs_font_small
ASxxxx Linker V03.00 + NoICE + sdld,  page 55.
Hexadecimal  [32-Bits]

Area                                    Addr        Size        Decimal Bytes (Attributes)
--------------------------------        ----        ----        ------- ----- ------------
_CODE_8                             00084000    00003FFF =       16383. bytes (REL,CON)

      Value  Global                              Global Defined In Module
      -----  --------------------------------   ------------------------
     000879C0  _sprite_gbs_font_small_metasprit   sprite_gbs_font_small
     000879D4  _sprite_gbs_font_small_metasprit   sprite_gbs_font_small
     000879E8  _sprite_gbs_font_small_metasprit   sprite_gbs_font_small
     000879FC  _sprite_gbs_font_small_metasprit   sprite_gbs_font_small
     00087A10  _sprite_gbs_font_small_metasprit   sprite_gbs_font_small
     00087A24  _sprite_gbs_font_small_metasprit   sprite_gbs_font_small
     00087A38  _sprite_gbs_font_small_metasprit   sprite_gbs_font_small
     00087A4C  _sprite_gbs_font_small_metasprit   sprite_gbs_font_small
     00087A60  _sprite_gbs_font_small_metasprit   sprite_gbs_font_small
     00087A74  _sprite_gbs_font_small_metasprit   sprite_gbs_font_small
     00087A88  _sprite_gbs_font_small_metasprit   sprite_gbs_font_small
     00087A9C  _sprite_gbs_font_small_metasprit   sprite_gbs_font_small
     00087AB0  _sprite_gbs_font_small_metasprit   sprite_gbs_font_small
     00087AC4  _sprite_gbs_font_small_metasprit   sprite_gbs_font_small
     00087AD8  _sprite_gbs_font_small_metasprit   sprite_gbs_font_small
     00087AEC  _sprite_gbs_font_small_metasprit   sprite_gbs_font_small
     00087B00  _sprite_gbs_font_small_metasprit   sprite_gbs_font_small
     00087B14  _sprite_gbs_font_small_metasprit   sprite_gbs_font_small
     00087B28  _sprite_gbs_font_small_metasprit   sprite_gbs_font_small
     00087B3C  _sprite_gbs_font_small_metasprit   sprite_gbs_font_small
     00087B50  _sprite_gbs_font_small_metasprit   sprite_gbs_font_small
     00087B64  _sprite_gbs_font_small_metasprit   sprite_gbs_font_small
     00087B78  _sprite_gbs_font_small_metasprit   sprite_gbs_font_small
     00087B8C  _sprite_gbs_font_small_metasprit   sprite_gbs_font_small
     00087BE6  _sprite_gbs_font_small_animation   sprite_gbs_font_small
     00087C06  _sprite_gbs_font_small_animation   sprite_gbs_font_small
     00087C0A  _sprite_gbs_font_small             sprite_gbs_font_small
     00087C1D  ___func_sprite_plant_stages_v1_t   sprite_plant_stages_v1_tiles
     00087C1D  _sprite_plant_stages_v1_tileset    sprite_plant_stages_v1_tiles

ASxxxx Linker V03.00 + NoICE + sdld,  page 56.
Hexadecimal  [32-Bits]

Area                                    Addr        Size        Decimal Bytes (Attributes)
--------------------------------        ----        ----        ------- ----- ------------
_CRASH_HEADER0                      00000000    00000005 =           5. bytes (ABS,CON)

      Value  Global                              Global Defined In Module
      -----  --------------------------------   ------------------------
ASxxxx Linker V03.00 + NoICE + sdld,  page 57.
Hexadecimal  [32-Bits]

Area                                    Addr        Size        Decimal Bytes (Attributes)
--------------------------------        ----        ----        ------- ----- ------------
_CRASH_HEADER1                      00000000    00000004 =           4. bytes (ABS,CON)

      Value  Global                              Global Defined In Module
      -----  --------------------------------   ------------------------
ASxxxx Linker V03.00 + NoICE + sdld,  page 58.
Hexadecimal  [32-Bits]

Area                                    Addr        Size        Decimal Bytes (Attributes)
--------------------------------        ----        ----        ------- ----- ------------
_CODE_9                             00094000    00003FFE =       16382. bytes (REL,CON)

      Value  Global                              Global Defined In Module
      -----  --------------------------------   ------------------------
     00094000  ___HandleCrash_banked              
     00094367  _CGBFadeToWhiteStep                fade_manager
     000943A0  _CGBFadeToBlackStep                fade_manager
     000943DB  _ApplyPaletteChangeColor           fade_manager
     0009441F  _fade_speeds                       fade_manager
     00094426  _DMGFadeToWhiteStep                fade_manager
     00094449  _DMGFadeToBlackStep                fade_manager
     0009446E  _ApplyPaletteChangeDMG             fade_manager
     000944E5  _fade_init                         fade_manager
     0009450D  _fade_in                           fade_manager
     0009453E  _fade_out                          fade_manager
     00094570  _fade_update                       fade_manager
     000945CA  _fade_applypalettechange           fade_manager
     000945E4  _fade_setspeed                     fade_manager
     000945F4  _fade_in_modal                     fade_manager
     0009460E  _fade_out_modal                    fade_manager
     00094690  _save_sram_banks                   
     00094718  _erase_flash                       
     0009472E  _printer_send_receive              gbprinter
     00094768  _printer_send_byte                 gbprinter
     00094787  _printer_send_command              gbprinter
     000947B2  _printer_print_tile                gbprinter
     0009484C  _printer_wait                      gbprinter
     0009487C  _gbprinter_detect                  gbprinter
     0009489E  _gbprinter_print_overlay           gbprinter
     00094AE1  _set_sgb_border                    sgb_border
     00094D12  _trigger_reset                     trigger
     00094D22  _trigger_interact                  trigger
     00094D62  _trigger_activate_at               trigger
     00094DAD  _trigger_at_intersection           trigger
     00094EC2  _trigger_activate_at_intersectio   trigger
     00095004  _trigger_at_tile                   trigger
     00095094  ___func_VM_CAMERA                  vm_camera
     00095094  _vm_camera_move_to                 vm_camera
     000951E7  _vm_camera_set_pos                 vm_camera
     0009522E  _camera_shake_frames               vm_camera
     00095326  ___func_VM_SIO                     vm_sio
     00095326  _vm_sio_set_mode                   vm_sio
     00095339  _vm_sio_exchange                   vm_sio
     00095692  ___func_bg_bg_creditscreen_theen   bg_bg_creditscreen_theend_ti
     00095692  _bg_bg_creditscreen_theend_tilem   bg_bg_creditscreen_theend_ti
     000957FA  ___func_bg_bg_creditscreen_theen   bg_bg_creditscreen_theend_ti
     000957FA  _bg_bg_creditscreen_theend_tilem   bg_bg_creditscreen_theend_ti
     00095962  ___func_bg_bg_endscreen_happy_ti   bg_bg_endscreen_happy_tilema
     00095962  _bg_bg_endscreen_happy_tilemap     bg_bg_endscreen_happy_tilema
     00095ACA  ___func_bg_bg_endscreen_pee_tile   bg_bg_endscreen_pee_tilemap
     00095ACA  _bg_bg_endscreen_pee_tilemap       bg_bg_endscreen_pee_tilemap
     00095C32  ___func_bg_bg_endscreen_sad_tile   bg_bg_endscreen_sad_tilemap
     00095C32  _bg_bg_endscreen_sad_tilemap       bg_bg_endscreen_sad_tilemap
     00095D9A  ___func_bg_bg_endscreen_shake_ti   bg_bg_endscreen_shake_tilema
ASxxxx Linker V03.00 + NoICE + sdld,  page 59.
Hexadecimal  [32-Bits]

Area                                    Addr        Size        Decimal Bytes (Attributes)
--------------------------------        ----        ----        ------- ----- ------------
_CODE_9                             00094000    00003FFE =       16382. bytes (REL,CON)

      Value  Global                              Global Defined In Module
      -----  --------------------------------   ------------------------
     00095D9A  _bg_bg_endscreen_shake_tilemap     bg_bg_endscreen_shake_tilema
     00095F02  ___func_bg_bg_endscreen_tilemap_   bg_bg_endscreen_tilemap_attr
     00095F02  _bg_bg_endscreen_tilemap_attr      bg_bg_endscreen_tilemap_attr
     0009615A  ___func_bg_bg_endscreen_tilemap    bg_bg_endscreen_tilemap
     0009615A  _bg_bg_endscreen_tilemap           bg_bg_endscreen_tilemap
     000963B2  ___func_bg_bg_openingscreen_tile   bg_bg_openingscreen_tilemap_
     000963B2  _bg_bg_openingscreen_tilemap_att   bg_bg_openingscreen_tilemap_
     00096772  ___func_bg_bg_openingscreen_tile   bg_bg_openingscreen_tilemap
     00096772  _bg_bg_openingscreen_tilemap       bg_bg_openingscreen_tilemap
     00096B32  ___func_scene_10_collisions        scene_10_collisions
     00096B32  _scene_10_collisions               scene_10_collisions
     00096D8A  ___func_scene_logo_collisions      scene_logo_collisions
     00096D8A  _scene_logo_collisions             scene_logo_collisions
     0009714A  ___func_scene_parallax_example_a   scene_parallax_example_actor
     0009714A  _scene_parallax_example_actors     scene_parallax_example_actor
     000974BE  ___func_sprite_gbs_font_small_ti   sprite_gbs_font_small_tilese
     000974BE  _sprite_gbs_font_small_tileset     sprite_gbs_font_small_tilese
     00097660  ___func_sprite_player_platform     sprite_player_platform
     00097660  _sprite_player_platform_metaspri   sprite_player_platform
     00097674  _sprite_player_platform_metaspri   sprite_player_platform
     00097688  _sprite_player_platform_metaspri   sprite_player_platform
     0009769C  _sprite_player_platform_metaspri   sprite_player_platform
     000976B0  _sprite_player_platform_metaspri   sprite_player_platform
     000976C4  _sprite_player_platform_metaspri   sprite_player_platform
     000976D8  _sprite_player_platform_metaspri   sprite_player_platform
     000976EC  _sprite_player_platform_metaspri   sprite_player_platform
     00097700  _sprite_player_platform_metaspri   sprite_player_platform
     00097704  _sprite_player_platform_metaspri   sprite_player_platform
     00097718  _sprite_player_platform_metaspri   sprite_player_platform
     0009772C  _sprite_player_platform_metaspri   sprite_player_platform
     00097740  _sprite_player_platform_metaspri   sprite_player_platform
     00097754  _sprite_player_platform_metaspri   sprite_player_platform
     00097768  _sprite_player_platform_metaspri   sprite_player_platform
     0009777C  _sprite_player_platform_metaspri   sprite_player_platform
     00097790  _sprite_player_platform_metaspri   sprite_player_platform
     000977A4  _sprite_player_platform_metaspri   sprite_player_platform
     000977D2  _sprite_player_platform_animatio   sprite_player_platform
     000977E2  _sprite_player_platform_animatio   sprite_player_platform
     000977E4  _sprite_player_platform            sprite_player_platform
     000977F7  ___func_sprite_player_tileset      sprite_player_tileset
     000977F7  _sprite_player_tileset             sprite_player_tileset
     00097979  ___func_sprite_rain_tileset        sprite_rain_tileset
     00097979  _sprite_rain_tileset               sprite_rain_tileset
     00097C9B  _pointnclick_init                  pointnclick
     00097CD4  _pointnclick_update                pointnclick

ASxxxx Linker V03.00 + NoICE + sdld,  page 60.
Hexadecimal  [32-Bits]

Area                                    Addr        Size        Decimal Bytes (Attributes)
--------------------------------        ----        ----        ------- ----- ------------
_CRASH_SCRATCH2                     00000000    000001CB =         459. bytes (ABS,CON)

      Value  Global                              Global Defined In Module
      -----  --------------------------------   ------------------------
ASxxxx Linker V03.00 + NoICE + sdld,  page 61.
Hexadecimal  [32-Bits]

Area                                    Addr        Size        Decimal Bytes (Attributes)
--------------------------------        ----        ----        ------- ----- ------------
_CODE_4                             00044000    00004000 =       16384. bytes (REL,CON)

      Value  Global                              Global Defined In Module
      -----  --------------------------------   ------------------------
     00044000  _load_init                         data_manager
     00044013  _spritesheet_none_far              data_manager
     00044016  _load_bkg_tileset                  data_manager
     000440EF  _load_background                   data_manager
     000441ED  _load_sprite                       data_manager
     000442EA  _load_bounds                       data_manager
     0004430A  _do_load_palette                   data_manager
     0004438A  _load_scene                        data_manager
     00044C64  _load_player                       data_manager
     00044CB0  _load_emote                        data_manager
     00044CC4  _events_init                       events
     00044D04  _timers_init                       events
     00044D44  ___func_bg_bg_level2_tileset       bg_bg_level2_tileset
     00044D44  _bg_bg_level2_tileset              bg_bg_level2_tileset
     000457B6  ___func_bg_bg_openingscreen_tile   bg_bg_openingscreen_tileset
     000457B6  _bg_bg_openingscreen_tileset       bg_bg_openingscreen_tileset
     00046438  ___func_font_gbs_mono              font_gbs_mono
     000471E8  _font_gbs_mono                     font_gbs_mono
     000471F0  ___func_scene_0_collisions         scene_0_collisions
     000471F0  _scene_0_collisions                scene_0_collisions

ASxxxx Linker V03.00 + NoICE + sdld,  page 62.
Hexadecimal  [32-Bits]

Area                                    Addr        Size        Decimal Bytes (Attributes)
--------------------------------        ----        ----        ------- ----- ------------
_CODE_10                            000A4000    00004000 =       16384. bytes (REL,CON)

      Value  Global                              Global Defined In Module
      -----  --------------------------------   ------------------------
     000A4000  _restore_sram_bank                 flasher
     000A403A  _restore_sram                      flasher
     000A4050  _save_sram                         flasher
     000A4080  _music_init_driver                 music_manager
     000A40D7  _music_init_events                 music_manager
     000A4113  _music_events_poll                 music_manager
     000A413D  _music_pause                       music_manager
     000A4162  _palette_init                      palette
     000A419B  _CGBZeroPalette                    palette
     000A41B0  _scroll_rect                       
     000A41ED  _SIO_init                          sio
     000A4216  ___func_VM_GBPRINTER               vm_gbprinter
     000A4216  _vm_print_detect                   vm_gbprinter
     000A4268  _vm_print_overlay                  vm_gbprinter
     000A42C0  ___func_VM_LOAD_SAVE               vm_load_save
     000A42C0  _vm_save_clear                     vm_load_save
     000A42CF  _vm_save_peek                      vm_load_save
     000A4351  ___func_VM_MATH                    vm_math
     000A4351  _vm_sin_scale                      vm_math
     000A43F3  _vm_cos_scale                      vm_math
     000A4497  ___func_VM_MUSIC                   vm_music
     000A4497  _vm_music_play                     vm_music
     000A44DB  _vm_music_stop                     vm_music
     000A44FD  _vm_music_mute                     vm_music
     000A4533  _vm_music_routine                  vm_music
     000A455A  _vm_music_setpos                   vm_music
     000A4564  _vm_sound_mastervol                vm_music
     000A456A  _vm_sfx_play                       vm_music
     000A45DD  ___func_VM_PROJECTILE              vm_projectiles
     000A45DD  _vm_projectile_launch              vm_projectiles
     000A461E  _vm_projectile_load_type           vm_projectiles
     000A46C9  ___func_VM_RTC                     vm_rtc
     000A46C9  _vm_rtc_latch                      vm_rtc
     000A46D1  _vm_rtc_get                        vm_rtc
     000A473A  _vm_rtc_set                        vm_rtc
     000A47A2  _vm_rtc_start                      vm_rtc
     000A47C5  ___func_VM_SCENE                   vm_scene
     000A47C5  _vm_scene_push                     vm_scene
     000A484A  _vm_scene_pop                      vm_scene
     000A4858  _vm_scene_pop_all                  vm_scene
     000A4863  _vm_scene_stack_reset              vm_scene
     000A486C  _itoa_fmt                          vm_ui_a
     000A48A5  .utoa_fmt                          vm_ui_a
     000A494F  _actor_1_interact                  actor_1_interact
     000A49A2  _actor_19_interact                 actor_19_interact
     000A49F5  _actor_22_update                   actor_22_update
     000A4AB6  _actor_26_update                   actor_26_update
     000A4B77  _actor_28_update                   actor_28_update
     000A4C38  _actor_29_update                   actor_29_update
     000A4CEA  _actor_30_interact                 actor_30_interact
ASxxxx Linker V03.00 + NoICE + sdld,  page 63.
Hexadecimal  [32-Bits]

Area                                    Addr        Size        Decimal Bytes (Attributes)
--------------------------------        ----        ----        ------- ----- ------------
_CODE_10                            000A4000    00004000 =       16384. bytes (REL,CON)

      Value  Global                              Global Defined In Module
      -----  --------------------------------   ------------------------
     000A4D3D  _actor_31_update                   actor_31_update
     000A4DEF  _actor_32_interact                 actor_32_interact
     000A4E42  _actor_34_update                   actor_34_update
     000A4F03  _actor_35_update                   actor_35_update
     000A5031  _actor_39_update                   actor_39_update
     000A507D  _actor_41_interact                 actor_41_interact
     000A50D0  _actor_45_update                   actor_45_update
     000A511C  _actor_46_interact                 actor_46_interact
     000A516F  _actor_47_update                   actor_47_update
     000A51D2  _actor_48_update                   actor_48_update
     000A5235  _actor_49_interact                 actor_49_interact
     000A5288  _actor_55_interact                 actor_55_interact
     000A52DB  _actor_59_update                   actor_59_update
     000A533E  _actor_60_interact                 actor_60_interact
     000A5391  _actor_61_interact                 actor_61_interact
     000A53E4  _actor_62_update                   actor_62_update
     000A5447  _actor_64_interact                 actor_64_interact
     000A549A  _actor_65_update                   actor_65_update
     000A54E0  _actor_66_update                   actor_66_update
     000A554C  _actor_67_update                   actor_67_update
     000A55B8  _actor_68_update                   actor_68_update
     000A5638  _actor_70_interact                 actor_70_interact
     000A568B  _actor_74_interact                 actor_74_interact
     000A56DE  ___func_bg_bg_startscreen_final_   bg_bg_startscreen_final_tile
     000A56DE  _bg_bg_startscreen_final_tilemap   bg_bg_startscreen_final_tile
     000A5846  ___func_bg_credit_red_tilemap      bg_credit_red_tilemap
     000A5846  _bg_credit_red_tilemap             bg_credit_red_tilemap
     000A59AE  ___func_bg_credit_robin_tilemap    bg_credit_robin_tilemap
     000A59AE  _bg_credit_robin_tilemap           bg_credit_robin_tilemap
     000A5B16  ___func_bg_credit_ryan_tilemap     bg_credit_ryan_tilemap
     000A5B16  _bg_credit_ryan_tilemap            bg_credit_ryan_tilemap
     000A5C7E  ___func_bg_credit_twinkie_tilema   bg_credit_twinkie_tilemap
     000A5C7E  _bg_credit_twinkie_tilemap         bg_credit_twinkie_tilemap
     000A5DE6  ___func_frame_image                frame_image
     000A5DE6  _frame_image                       frame_image
     000A5E76  ___func_palette_1                  palette_1
     000A5E76  _palette_1                         palette_1
     000A5EB9  ___func_palette_2                  palette_2
     000A5EB9  _palette_2                         palette_2
     000A5EFC  ___func_palette_3                  palette_3
     000A5EFC  _palette_3                         palette_3
     000A5F3F  ___func_palette_4                  palette_4
     000A5F3F  _palette_4                         palette_4
     000A5F82  ___func_palette_5                  palette_5
     000A5F82  _palette_5                         palette_5
     000A5FC5  ___func_palette_6                  palette_6
     000A5FC5  _palette_6                         palette_6
     000A6008  ___func_palette_7                  palette_7
     000A6008  _palette_7                         palette_7
     000A604B  _scene_0_init                      scene_0_init
     000A60C9  ___func_scene_0                    scene_0
ASxxxx Linker V03.00 + NoICE + sdld,  page 64.
Hexadecimal  [32-Bits]

Area                                    Addr        Size        Decimal Bytes (Attributes)
--------------------------------        ----        ----        ------- ----- ------------
_CODE_10                            000A4000    00004000 =       16384. bytes (REL,CON)

      Value  Global                              Global Defined In Module
      -----  --------------------------------   ------------------------
     000A60C9  _scene_0                           scene_0
     000A6104  ___func_scene_10_actors            scene_10_actors
     000A6104  _scene_10_actors                   scene_10_actors
     000A616C  _scene_10_init                     scene_10_init
     000A61D5  ___func_scene_10_sprites           scene_10_sprites
     000A61D5  _scene_10_sprites                  scene_10_sprites
     000A61DB  ___func_scene_10                   scene_10
     000A61DB  _scene_10                          scene_10
     000A6216  ___func_scene_11_collisions        scene_11_collisions
     000A6216  _scene_11_collisions               scene_11_collisions
     000A637E  _scene_11_init                     scene_11_init
     000A63CF  ___func_scene_11                   scene_11
     000A63CF  _scene_11                          scene_11
     000A640A  ___func_scene_12_collisions        scene_12_collisions
     000A640A  _scene_12_collisions               scene_12_collisions
     000A6572  _scene_12_init                     scene_12_init
     000A65BE  ___func_scene_12                   scene_12
     000A65BE  _scene_12                          scene_12
     000A65F9  ___func_scene_13_collisions        scene_13_collisions
     000A65F9  _scene_13_collisions               scene_13_collisions
     000A6761  _scene_13_init                     scene_13_init
     000A67AD  ___func_scene_13                   scene_13
     000A67AD  _scene_13                          scene_13
     000A67E8  ___func_scene_14_collisions        scene_14_collisions
     000A67E8  _scene_14_collisions               scene_14_collisions
     000A6950  _scene_14_init                     scene_14_init
     000A699C  ___func_scene_14                   scene_14
     000A699C  _scene_14                          scene_14
     000A69D7  ___func_scene_15_collisions        scene_15_collisions
     000A69D7  _scene_15_collisions               scene_15_collisions
     000A6B3F  _scene_15_init                     scene_15_init
     000A6B92  ___func_scene_15                   scene_15
     000A6B92  _scene_15                          scene_15
     000A6BCD  ___func_scene_16_collisions        scene_16_collisions
     000A6BCD  _scene_16_collisions               scene_16_collisions
     000A6D35  _scene_16_init                     scene_16_init
     000A6D81  ___func_scene_16                   scene_16
     000A6D81  _scene_16                          scene_16
     000A6DBC  ___func_scene_17_collisions        scene_17_collisions
     000A6DBC  _scene_17_collisions               scene_17_collisions
     000A6F24  _scene_17_init                     scene_17_init
     000A6F75  ___func_scene_17                   scene_17
     000A6F75  _scene_17                          scene_17
     000A6FB0  ___func_scene_18_collisions        scene_18_collisions
     000A6FB0  _scene_18_collisions               scene_18_collisions
     000A7118  _scene_18_init                     scene_18_init
     000A7164  ___func_scene_18                   scene_18
     000A7164  _scene_18                          scene_18
     000A719F  ___func_scene_19_collisions        scene_19_collisions
     000A719F  _scene_19_collisions               scene_19_collisions
     000A7307  ___func_scene_19                   scene_19
ASxxxx Linker V03.00 + NoICE + sdld,  page 65.
Hexadecimal  [32-Bits]

Area                                    Addr        Size        Decimal Bytes (Attributes)
--------------------------------        ----        ----        ------- ----- ------------
_CODE_10                            000A4000    00004000 =       16384. bytes (REL,CON)

      Value  Global                              Global Defined In Module
      -----  --------------------------------   ------------------------
     000A7307  _scene_19                          scene_19
     000A7342  _scene_9_init                      scene_9_init
     000A73A8  ___func_scene_9                    scene_9
     000A73A8  _scene_9                           scene_9
     000A73E3  _scene_logo_init                   scene_logo_init
     000A7443  ___func_scene_logo                 scene_logo
     000A7443  _scene_logo                        scene_logo
     000A747E  _scene_parallax_example_init       scene_parallax_example_init
     000A74E4  ___func_scene_parallax_example     scene_parallax_example
     000A74E4  _scene_parallax_example            scene_parallax_example
     000A751F  ___func_scene_title_screen_colli   scene_title_screen_collision
     000A751F  _scene_title_screen_collisions     scene_title_screen_collision
     000A7687  _scene_title_screen_init           scene_title_screen_init
     000A76CE  _script_15                         script_15
     000A7713  _script_engine_init                
     000A775B  ___func_sprite_0_peeanim_sad       sprite_0_peeanim_sad
     000A775B  _sprite_0_peeanim_sad_metasprite   sprite_0_peeanim_sad
     000A77F7  _sprite_0_peeanim_sad_metasprite   sprite_0_peeanim_sad
     000A77F9  _sprite_0_peeanim_sad_animations   sprite_0_peeanim_sad
     000A7809  _sprite_0_peeanim_sad_animations   sprite_0_peeanim_sad
     000A780B  _sprite_0_peeanim_sad              sprite_0_peeanim_sad
     000A781E  ___func_sprite_chemical_vat_rev_   sprite_chemical_vat_rev_ani
     000A781E  _sprite_chemical_vat_rev_ani_met   sprite_chemical_vat_rev_ani
     000A7842  _sprite_chemical_vat_rev_ani_met   sprite_chemical_vat_rev_ani
     000A7866  _sprite_chemical_vat_rev_ani_met   sprite_chemical_vat_rev_ani
     000A788A  _sprite_chemical_vat_rev_ani_met   sprite_chemical_vat_rev_ani
     000A78AE  _sprite_chemical_vat_rev_ani_met   sprite_chemical_vat_rev_ani
     000A78D2  _sprite_chemical_vat_rev_ani_met   sprite_chemical_vat_rev_ani
     000A78F6  _sprite_chemical_vat_rev_ani_met   sprite_chemical_vat_rev_ani
     000A791A  _sprite_chemical_vat_rev_ani_met   sprite_chemical_vat_rev_ani
     000A793E  _sprite_chemical_vat_rev_ani_met   sprite_chemical_vat_rev_ani
     000A7954  _sprite_chemical_vat_rev_ani_ani   sprite_chemical_vat_rev_ani
     000A7964  _sprite_chemical_vat_rev_ani_ani   sprite_chemical_vat_rev_ani
     000A7966  _sprite_chemical_vat_rev_ani       sprite_chemical_vat_rev_ani
     000A7979  ___func_sprite_cloud_player_spri   sprite_cloud_player_sprite_t
     000A7979  _sprite_cloud_player_sprite_tile   sprite_cloud_player_sprite_t
     000A79BB  ___func_sprite_flame_baby_idling   sprite_flame_baby_idling_an_
     000A79BB  _sprite_flame_baby_idling_an_til   sprite_flame_baby_idling_an_
     000A7AFD  ___func_sprite_flame_baby_idling   sprite_flame_baby_idling_an
     000A7AFD  _sprite_flame_baby_idling_an_met   sprite_flame_baby_idling_an
     000A7B09  _sprite_flame_baby_idling_an_met   sprite_flame_baby_idling_an
     000A7B15  _sprite_flame_baby_idling_an_met   sprite_flame_baby_idling_an
     000A7B21  _sprite_flame_baby_idling_an_met   sprite_flame_baby_idling_an
     000A7B2D  _sprite_flame_baby_idling_an_met   sprite_flame_baby_idling_an
     000A7B39  _sprite_flame_baby_idling_an_met   sprite_flame_baby_idling_an
     000A7B49  _sprite_flame_baby_idling_an_ani   sprite_flame_baby_idling_an
     000A7B59  _sprite_flame_baby_idling_an_ani   sprite_flame_baby_idling_an
     000A7B5B  _sprite_flame_baby_idling_an       sprite_flame_baby_idling_an
     000A7B6E  ___func_sprite_fly_enemysingle_a   sprite_fly_enemysingle_anim_
     000A7B6E  _sprite_fly_enemysingle_anim_til   sprite_fly_enemysingle_anim_
     000A7BF0  ___func_sprite_fly_enemysingle_a   sprite_fly_enemysingle_anim
ASxxxx Linker V03.00 + NoICE + sdld,  page 66.
Hexadecimal  [32-Bits]

Area                                    Addr        Size        Decimal Bytes (Attributes)
--------------------------------        ----        ----        ------- ----- ------------
_CODE_10                            000A4000    00004000 =       16384. bytes (REL,CON)

      Value  Global                              Global Defined In Module
      -----  --------------------------------   ------------------------
     000A7BF0  _sprite_fly_enemysingle_anim_met   sprite_fly_enemysingle_anim
     000A7BFC  _sprite_fly_enemysingle_anim_met   sprite_fly_enemysingle_anim
     000A7C08  _sprite_fly_enemysingle_anim_met   sprite_fly_enemysingle_anim
     000A7C0C  _sprite_fly_enemysingle_anim_ani   sprite_fly_enemysingle_anim
     000A7C1C  _sprite_fly_enemysingle_anim_ani   sprite_fly_enemysingle_anim
     000A7C1E  _sprite_fly_enemysingle_anim       sprite_fly_enemysingle_anim
     000A7C31  ___func_sprite_plant_stages_v1     sprite_plant_stages_v1
     000A7C31  _sprite_plant_stages_v1_metaspri   sprite_plant_stages_v1
     000A7C55  _sprite_plant_stages_v1_metaspri   sprite_plant_stages_v1
     000A7C79  _sprite_plant_stages_v1_metaspri   sprite_plant_stages_v1
     000A7C9D  _sprite_plant_stages_v1_metaspri   sprite_plant_stages_v1
     000A7CC1  _sprite_plant_stages_v1_metaspri   sprite_plant_stages_v1
     000A7CC9  _sprite_plant_stages_v1_animatio   sprite_plant_stages_v1
     000A7CD9  _sprite_plant_stages_v1_animatio   sprite_plant_stages_v1
     000A7CDB  _sprite_plant_stages_v1            sprite_plant_stages_v1
     000A7CEE  ___func_sprite_player              sprite_player
     000A7CEE  _sprite_player_metasprite_0        sprite_player
     000A7CFA  _sprite_player_metasprite_1        sprite_player
     000A7D06  _sprite_player_metasprite_2        sprite_player
     000A7D12  _sprite_player_metasprite_3        sprite_player
     000A7D1E  _sprite_player_metasprite_4        sprite_player
     000A7D2A  _sprite_player_metasprite_5        sprite_player
     000A7D36  _sprite_player_metasprite_6        sprite_player
     000A7D42  _sprite_player_metasprite_7        sprite_player
     000A7D4E  _sprite_player_metasprites         sprite_player
     000A7D66  _sprite_player_animations          sprite_player
     000A7D76  _sprite_player_animations_lookup   sprite_player
     000A7D78  _sprite_player                     sprite_player
     000A7D8B  ___func_sprite_rain                sprite_rain
     000A7D8B  _sprite_rain_metasprite_0          sprite_rain
     000A7DAB  _sprite_rain_metasprite_1          sprite_rain
     000A7DCB  _sprite_rain_metasprite_2          sprite_rain
     000A7DEF  _sprite_rain_metasprite_3          sprite_rain
     000A7E0B  _sprite_rain_metasprites           sprite_rain
     000A7E13  _sprite_rain_animations            sprite_rain
     000A7E23  _sprite_rain_animations_lookup     sprite_rain
     000A7E25  _sprite_rain                       sprite_rain
     000A7E38  ___func_sprite_soot_idle_anim_ti   sprite_soot_idle_anim_tilese
     000A7E38  _sprite_soot_idle_anim_tileset     sprite_soot_idle_anim_tilese
     000A7EBA  ___func_sprite_soot_idle_anim      sprite_soot_idle_anim
     000A7EBA  _sprite_soot_idle_anim_metasprit   sprite_soot_idle_anim
     000A7EC6  _sprite_soot_idle_anim_metasprit   sprite_soot_idle_anim
     000A7ED2  _sprite_soot_idle_anim_metasprit   sprite_soot_idle_anim
     000A7ED6  _sprite_soot_idle_anim_animation   sprite_soot_idle_anim
     000A7EE6  _sprite_soot_idle_anim_animation   sprite_soot_idle_anim
     000A7EE8  _sprite_soot_idle_anim             sprite_soot_idle_anim
     000A7EFB  ___func_sprite_sprite_raindrop_t   sprite_sprite_raindrop_tiles
     000A7EFB  _sprite_sprite_raindrop_tileset    sprite_sprite_raindrop_tiles
     000A7F7D  ___func_sprite_sprite_raindrop     sprite_sprite_raindrop
     000A7F7D  _sprite_sprite_raindrop_metaspri   sprite_sprite_raindrop
     000A7F89  _sprite_sprite_raindrop_metaspri   sprite_sprite_raindrop
ASxxxx Linker V03.00 + NoICE + sdld,  page 67.
Hexadecimal  [32-Bits]

Area                                    Addr        Size        Decimal Bytes (Attributes)
--------------------------------        ----        ----        ------- ----- ------------
_CODE_10                            000A4000    00004000 =       16384. bytes (REL,CON)

      Value  Global                              Global Defined In Module
      -----  --------------------------------   ------------------------
     000A7F95  _sprite_sprite_raindrop_metaspri   sprite_sprite_raindrop
     000A7F99  _sprite_sprite_raindrop_animatio   sprite_sprite_raindrop
     000A7FA9  _sprite_sprite_raindrop_animatio   sprite_sprite_raindrop
     000A7FAB  _sprite_sprite_raindrop            sprite_sprite_raindrop
     000A7FBE  ___func_sprite_tree_stump_tilese   sprite_tree_stump_tileset
     000A7FBE  _sprite_tree_stump_tileset         sprite_tree_stump_tileset

ASxxxx Linker V03.00 + NoICE + sdld,  page 68.
Hexadecimal  [32-Bits]

Area                                    Addr        Size        Decimal Bytes (Attributes)
--------------------------------        ----        ----        ------- ----- ------------
_HEADER_SIO0                        00000000    00000004 =           4. bytes (ABS,CON)

      Value  Global                              Global Defined In Module
      -----  --------------------------------   ------------------------
ASxxxx Linker V03.00 + NoICE + sdld,  page 69.
Hexadecimal  [32-Bits]

Area                                    Addr        Size        Decimal Bytes (Attributes)
--------------------------------        ----        ----        ------- ----- ------------
_HEADER_TIMER0                      00000000    00000004 =           4. bytes (ABS,CON)

      Value  Global                              Global Defined In Module
      -----  --------------------------------   ------------------------
ASxxxx Linker V03.00 + NoICE + sdld,  page 70.
Hexadecimal  [32-Bits]

Area                                    Addr        Size        Decimal Bytes (Attributes)
--------------------------------        ----        ----        ------- ----- ------------
_CODE_5                             00054000    00004000 =       16384. bytes (REL,CON)

      Value  Global                              Global Defined In Module
      -----  --------------------------------   ------------------------
     00054000  ___func_VM_GAMEBOY                 vm_gameboy
     00054000  _vm_set_sprites_visible            vm_gameboy
     00054017  _vm_input_wait                     vm_gameboy
     00054040  _vm_context_prepare                vm_gameboy
     0005406B  _vm_input_attach                   vm_gameboy
     00054081  _vm_input_detach                   vm_gameboy
     00054095  _vm_input_get                      vm_gameboy
     000540C9  _vm_fade                           vm_gameboy
     000540FB  _vm_timer_prepare                  vm_gameboy
     00054126  _vm_timer_set                      vm_gameboy
     00054141  _vm_timer_stop                     vm_gameboy
     00054155  _vm_timer_reset                    vm_gameboy
     0005416C  _vm_get_tile_xy                    vm_gameboy
     00054255  _vm_replace_tile                   vm_gameboy
     000542FE  _vm_poll                           vm_gameboy
     000543D0  _vm_set_sprite_mode                vm_gameboy
     000543E4  _vm_replace_tile_xy                vm_gameboy
     00054506  _vm_rumble                         vm_gameboy
     00054526  _vm_load_tiles                     vm_gameboy
     0005453B  _vm_load_tileset                   vm_gameboy
     00054658  ___func_bg_bg_level1_tileset       bg_bg_level1_tileset
     00054658  _bg_bg_level1_tileset              bg_bg_level1_tileset
     0005522A  ___func_bg_credit_red_tileset      bg_credit_red_tileset
     0005522A  _bg_credit_red_tileset             bg_credit_red_tileset
     00055D5C  ___func_bg_credit_robin_tileset    bg_credit_robin_tileset
     00055D5C  _bg_credit_robin_tileset           bg_credit_robin_tileset
     000568FE  ___func_bg_credit_ryan_tileset     bg_credit_ryan_tileset
     000568FE  _bg_credit_ryan_tileset            bg_credit_ryan_tileset
     00057430  ___func_bg_credit_twinkie_tilese   bg_credit_twinkie_tileset
     00057430  _bg_credit_twinkie_tileset         bg_credit_twinkie_tileset
     00057F72  ___func_scene_0_sprites            scene_0_sprites
     00057F72  _scene_0_sprites                   scene_0_sprites
     00057F7E  ___func_sprite_chemical_cloud_ti   sprite_chemical_cloud_tilese
     00057F7E  _sprite_chemical_cloud_tileset     sprite_chemical_cloud_tilese

ASxxxx Linker V03.00 + NoICE + sdld,  page 71.
Hexadecimal  [32-Bits]

Area                                    Addr        Size        Decimal Bytes (Attributes)
--------------------------------        ----        ----        ------- ----- ------------
_CODE_3                             00034000    00004000 =       16384. bytes (REL,CON)

      Value  Global                              Global Defined In Module
      -----  --------------------------------   ------------------------
     00034000  ___func_VM_MAIN                    vm
     00034000  _vm_call                           vm
     00034042  _vm_ret                            vm
     000340A1  _vm_call_far                       vm
     0003411E  _vm_ret_far                        vm
     0003418D  _vm_push                           vm
     000341B7  _vm_pop                            vm
     000341F2  _vm_loop                           vm
     0003427F  _vm_jump                           vm
     0003428B  _wait_frames                       vm
     00034302  _vm_invoke                         vm
     0003442E  _vm_join                           vm
     00034487  _vm_terminate                      vm
     000344B4  _vm_if                             vm
     000345F8  _vm_if_const                       vm
     0003470C  _vm_push_value                     vm
     0003475E  _vm_push_value_ind                 vm
     000347D3  _vm_push_reference                 vm
     0003482A  _vm_reserve                        vm
     00034857  _vm_set                            vm
     000348B8  _vm_set_const                      vm
     000348E4  _vm_get_tlocal                     vm
     00034971  _vm_test_terminate                 vm
     0003497C  _vm_idle                           vm
     00034988  _vm_get_uint8                      vm
     000349BB  _vm_get_int8                       vm
     000349EF  _vm_get_int16                      vm
     00034A31  _vm_set_uint8                      vm
     00034A5D  _vm_set_int8                       vm
     00034A89  _vm_set_int16                      vm
     00034AC8  _vm_set_const_int8                 vm
     00034AD1  _vm_set_const_int16                vm
     00034ADD  _vm_init_rng                       vm
     00034B09  _vm_rand                           vm
     00034B8E  _vm_lock                           vm
     00034B9D  _vm_unlock                         vm
     00034BB0  _vm_raise                          vm
     00034BF2  _vm_set_indirect                   vm
     00034C6D  _vm_get_indirect                   vm
     00034CE8  _vm_poll_loaded                    vm
     00034D17  _vm_memset                         vm
     00034D5C  _vm_memcpy                         vm
     00034DDC  _script_runner_init                vm
     00034E98  _script_execute                    vm
     00034FDD  _script_terminate                  vm
     00035043  _script_detach_hthread             vm
     00035080  ___func_bg_bg_level3_longer_new_   bg_bg_level3_longer_new_tile
     00035080  _bg_bg_level3_longer_new_tilemap   bg_bg_level3_longer_new_tile
     00035E90  ___func_bg_bg_level3_longer_new_   bg_bg_level3_longer_new_tile
     00035E90  _bg_bg_level3_longer_new_tilemap   bg_bg_level3_longer_new_tile
ASxxxx Linker V03.00 + NoICE + sdld,  page 72.
Hexadecimal  [32-Bits]

Area                                    Addr        Size        Decimal Bytes (Attributes)
--------------------------------        ----        ----        ------- ----- ------------
_CODE_3                             00034000    00004000 =       16384. bytes (REL,CON)

      Value  Global                              Global Defined In Module
      -----  --------------------------------   ------------------------
     00036CA0  _script_input_1                    script_input_1
     00036CA4  ___func_sprite_player_platform_t   sprite_player_platform_tiles
     00036CA4  _sprite_player_platform_tileset    sprite_player_platform_tiles
     00036EC6  _platform_init                     platform
     0003707D  _platform_update                   platform

ASxxxx Linker V03.00 + NoICE + sdld,  page 73.
Hexadecimal  [32-Bits]

Area                                    Addr        Size        Decimal Bytes (Attributes)
--------------------------------        ----        ----        ------- ----- ------------
_CODE_2                             00024000    00003FFF =       16383. bytes (REL,CON)

      Value  Global                              Global Defined In Module
      -----  --------------------------------   ------------------------
     00024000  ___func_bg_bg_creditscreen_theen   bg_bg_creditscreen_theend_ti
     00024000  _bg_bg_creditscreen_theend_tiles   bg_bg_creditscreen_theend_ti
     000249F2  ___func_bg_bg_level1_tilemap_att   bg_bg_level1_tilemap_attr
     000249F2  _bg_bg_level1_tilemap_attr         bg_bg_level1_tilemap_attr
     00025BE0  ___func_bg_bg_level1_tilemap       bg_bg_level1_tilemap
     00025BE0  _bg_bg_level1_tilemap              bg_bg_level1_tilemap
     00026DCE  ___func_palette_0                  palette_0
     00026DCE  _palette_0                         palette_0
     00026E11  ___func_scene_parallax_example_c   scene_parallax_example_colli
     00026E11  _scene_parallax_example_collisio   scene_parallax_example_colli

ASxxxx Linker V03.00 + NoICE + sdld,  page 74.
Hexadecimal  [32-Bits]

Area                                    Addr        Size        Decimal Bytes (Attributes)
--------------------------------        ----        ----        ------- ----- ------------
_CODE_6                             00064000    00004000 =       16384. bytes (REL,CON)

      Value  Global                              Global Defined In Module
      -----  --------------------------------   ------------------------
     00064000  ___func_bg_bg_endscreen_happy_ti   bg_bg_endscreen_happy_tilese
     00064000  _bg_bg_endscreen_happy_tileset     bg_bg_endscreen_happy_tilese
     00064952  ___func_bg_bg_endscreen_pee_tile   bg_bg_endscreen_pee_tileset
     00064952  _bg_bg_endscreen_pee_tileset       bg_bg_endscreen_pee_tileset
     000652A4  ___func_bg_bg_endscreen_shake_ti   bg_bg_endscreen_shake_tilese
     000652A4  _bg_bg_endscreen_shake_tileset     bg_bg_endscreen_shake_tilese
     00065C46  ___func_bg_bg_level2_tilemap_att   bg_bg_level2_tilemap_attr
     00065C46  _bg_bg_level2_tilemap_attr         bg_bg_level2_tilemap_attr
     00066522  ___func_bg_bg_level3_longer_new_   bg_bg_level3_longer_new_tile
     00066522  _bg_bg_level3_longer_new_tileset   bg_bg_level3_longer_new_tile
     00066F04  ___func_bg_bg_startscreen_final_   bg_bg_startscreen_final_tile
     00066F04  _bg_bg_startscreen_final_tileset   bg_bg_startscreen_final_tile
     000678B6  _scene_19_init                     scene_19_init
     000678D4  _adventure_init                    adventure
     000678E9  _adventure_update                  adventure
ASxxxx Linker V03.00 + NoICE + sdld,  page 75.
Hexadecimal  [32-Bits]

Area                                    Addr        Size        Decimal Bytes (Attributes)
--------------------------------        ----        ----        ------- ----- ------------
_HEADER_LCD0                        00000000    00000003 =           3. bytes (ABS,CON)

      Value  Global                              Global Defined In Module
      -----  --------------------------------   ------------------------
ASxxxx Linker V03.00 + NoICE + sdld,  page 76.

Files Linked                              [ module(s) ]

C:\Users\amish\AppData\Local\Temp/_gbstools/gbdk/lib/small/asxxxx/gb/crt0.o
                                          [ Runtime ]
C:/Users/amish/AppData/Local/Temp/_gbsbuild/obj/___sdcc_bcall_ehl.rel
                                          [  ]
C:/Users/amish/AppData/Local/Temp/_gbsbuild/obj/absolute.rel
                                          [ absolute ]
C:/Users/amish/AppData/Local/Temp/_gbsbuild/obj/actor.rel
                                          [ actor ]
C:/Users/amish/AppData/Local/Temp/_gbsbuild/obj/bankdata.rel
                                          [ bankdata ]
C:/Users/amish/AppData/Local/Temp/_gbsbuild/obj/bootstrap.rel
                                          [  ]
C:/Users/amish/AppData/Local/Temp/_gbsbuild/obj/camera.rel
                                          [ camera ]
C:/Users/amish/AppData/Local/Temp/_gbsbuild/obj/core.rel
                                          [ core ]
C:/Users/amish/AppData/Local/Temp/_gbsbuild/obj/crash_handler.rel
                                          [  ]
C:/Users/amish/AppData/Local/Temp/_gbsbuild/obj/data_manager.rel
                                          [ data_manager ]
C:/Users/amish/AppData/Local/Temp/_gbsbuild/obj/events.rel
                                          [ events ]
C:/Users/amish/AppData/Local/Temp/_gbsbuild/obj/fade_manager.rel
                                          [ fade_manager ]
C:/Users/amish/AppData/Local/Temp/_gbsbuild/obj/flasher_s.rel
                                          [  ]
C:/Users/amish/AppData/Local/Temp/_gbsbuild/obj/flasher.rel
                                          [ flasher ]
C:/Users/amish/AppData/Local/Temp/_gbsbuild/obj/game_time.rel
                                          [ game_time ]
C:/Users/amish/AppData/Local/Temp/_gbsbuild/obj/gbprinter.rel
                                          [ gbprinter ]
C:/Users/amish/AppData/Local/Temp/_gbsbuild/obj/input.rel
                                          [ input ]
C:/Users/amish/AppData/Local/Temp/_gbsbuild/obj/interrupt_sio.rel
                                          [  ]
C:/Users/amish/AppData/Local/Temp/_gbsbuild/obj/interrupt_timer.rel
                                          [  ]
C:/Users/amish/AppData/Local/Temp/_gbsbuild/obj/interrupts.rel
                                          [ interrupts ]
C:/Users/amish/AppData/Local/Temp/_gbsbuild/obj/load_save.rel
                                          [ load_save ]
C:/Users/amish/AppData/Local/Temp/_gbsbuild/obj/math.rel
                                          [ math ]
C:/Users/amish/AppData/Local/Temp/_gbsbuild/obj/music_manager.rel
                                          [ music_manager ]
C:/Users/amish/AppData/Local/Temp/_gbsbuild/obj/palette.rel
                                          [ palette ]
C:/Users/amish/AppData/Local/Temp/_gbsbuild/obj/parallax.rel
                                          [ parallax ]
C:/Users/amish/AppData/Local/Temp/_gbsbuild/obj/projectiles.rel
                                          [ projectiles ]
C:/Users/amish/AppData/Local/Temp/_gbsbuild/obj/scroll_a.rel
                                          [  ]
C:/Users/amish/AppData/Local/Temp/_gbsbuild/obj/scroll.rel
                                          [ scroll ]
C:/Users/amish/AppData/Local/Temp/_gbsbuild/obj/set_tile_submap.rel
                                          [  ]
C:/Users/amish/AppData/Local/Temp/_gbsbuild/obj/sfx_player.rel
                                          [ sfx_player ]
C:/Users/amish/AppData/Local/Temp/_gbsbuild/obj/sgb_border.rel
                                          [ sgb_border ]
C:/Users/amish/AppData/Local/Temp/_gbsbuild/obj/sio.rel
                                          [ sio ]
C:/Users/amish/AppData/Local/Temp/_gbsbuild/obj/states_caller.rel
                                          [  ]
C:/Users/amish/AppData/Local/Temp/_gbsbuild/obj/system.rel
                                          [ system ]
C:/Users/amish/AppData/Local/Temp/_gbsbuild/obj/trigger.rel
                                          [ trigger ]
C:/Users/amish/AppData/Local/Temp/_gbsbuild/obj/ui_a.rel
                                          [  ]
C:/Users/amish/AppData/Local/Temp/_gbsbuild/obj/ui.rel
                                          [ ui ]
C:/Users/amish/AppData/Local/Temp/_gbsbuild/obj/vm_actor.rel
                                          [ vm_actor ]
C:/Users/amish/AppData/Local/Temp/_gbsbuild/obj/vm_camera.rel
                                          [ vm_camera ]
C:/Users/amish/AppData/Local/Temp/_gbsbuild/obj/vm_gameboy.rel
                                          [ vm_gameboy ]
C:/Users/amish/AppData/Local/Temp/_gbsbuild/obj/vm_gbprinter.rel
                                          [ vm_gbprinter ]
C:/Users/amish/AppData/Local/Temp/_gbsbuild/obj/vm_instructions.rel
                                          [ vm_instructions ]
C:/Users/amish/AppData/Local/Temp/_gbsbuild/obj/vm_load_save.rel
                                          [ vm_load_save ]
C:/Users/amish/AppData/Local/Temp/_gbsbuild/obj/vm_math.rel
                                          [ vm_math ]
C:/Users/amish/AppData/Local/Temp/_gbsbuild/obj/vm_music.rel
                                          [ vm_music ]
C:/Users/amish/AppData/Local/Temp/_gbsbuild/obj/vm_palette.rel
                                          [ vm_palette ]
C:/Users/amish/AppData/Local/Temp/_gbsbuild/obj/vm_projectiles.rel
                                          [ vm_projectiles ]
C:/Users/amish/AppData/Local/Temp/_gbsbuild/obj/vm_rtc.rel
                                          [ vm_rtc ]
C:/Users/amish/AppData/Local/Temp/_gbsbuild/obj/vm_scene.rel
                                          [ vm_scene ]
C:/Users/amish/AppData/Local/Temp/_gbsbuild/obj/vm_sgb.rel
                                          [ vm_sgb ]
C:/Users/amish/AppData/Local/Temp/_gbsbuild/obj/vm_sio.rel
                                          [ vm_sio ]
C:/Users/amish/AppData/Local/Temp/_gbsbuild/obj/vm_ui_a.rel
                                          [ vm_ui_a ]
C:/Users/amish/AppData/Local/Temp/_gbsbuild/obj/vm_ui.rel
                                          [ vm_ui ]
C:/Users/amish/AppData/Local/Temp/_gbsbuild/obj/vm.rel
                                          [ vm ]
C:/Users/amish/AppData/Local/Temp/_gbsbuild/obj/actor_1_interact.rel
                                          [ actor_1_interact ]
C:/Users/amish/AppData/Local/Temp/_gbsbuild/obj/actor_18_update.rel
                                          [ actor_18_update ]
C:/Users/amish/AppData/Local/Temp/_gbsbuild/obj/actor_19_interact.rel
                                          [ actor_19_interact ]
C:/Users/amish/AppData/Local/Temp/_gbsbuild/obj/actor_20_update.rel
                                          [ actor_20_update ]
C:/Users/amish/AppData/Local/Temp/_gbsbuild/obj/actor_22_interact.rel
                                          [ actor_22_interact ]
C:/Users/amish/AppData/Local/Temp/_gbsbuild/obj/actor_22_update.rel
                                          [ actor_22_update ]
C:/Users/amish/AppData/Local/Temp/_gbsbuild/obj/actor_26_interact.rel
                                          [ actor_26_interact ]
C:/Users/amish/AppData/Local/Temp/_gbsbuild/obj/actor_26_update.rel
                                          [ actor_26_update ]
C:/Users/amish/AppData/Local/Temp/_gbsbuild/obj/actor_28_interact.rel
                                          [ actor_28_interact ]
C:/Users/amish/AppData/Local/Temp/_gbsbuild/obj/actor_28_update.rel
                                          [ actor_28_update ]
C:/Users/amish/AppData/Local/Temp/_gbsbuild/obj/actor_29_interact.rel
                                          [ actor_29_interact ]
C:/Users/amish/AppData/Local/Temp/_gbsbuild/obj/actor_29_update.rel
                                          [ actor_29_update ]
C:/Users/amish/AppData/Local/Temp/_gbsbuild/obj/actor_30_interact.rel
                                          [ actor_30_interact ]
C:/Users/amish/AppData/Local/Temp/_gbsbuild/obj/actor_31_interact.rel
                                          [ actor_31_interact ]
C:/Users/amish/AppData/Local/Temp/_gbsbuild/obj/actor_31_update.rel
                                          [ actor_31_update ]
C:/Users/amish/AppData/Local/Temp/_gbsbuild/obj/actor_32_interact.rel
                                          [ actor_32_interact ]
C:/Users/amish/AppData/Local/Temp/_gbsbuild/obj/actor_34_interact.rel
                                          [ actor_34_interact ]
C:/Users/amish/AppData/Local/Temp/_gbsbuild/obj/actor_34_update.rel
                                          [ actor_34_update ]
C:/Users/amish/AppData/Local/Temp/_gbsbuild/obj/actor_35_interact.rel
                                          [ actor_35_interact ]
C:/Users/amish/AppData/Local/Temp/_gbsbuild/obj/actor_35_update.rel
                                          [ actor_35_update ]
C:/Users/amish/AppData/Local/Temp/_gbsbuild/obj/actor_36_update.rel
                                          [ actor_36_update ]
C:/Users/amish/AppData/Local/Temp/_gbsbuild/obj/actor_37_update.rel
                                          [ actor_37_update ]
C:/Users/amish/AppData/Local/Temp/_gbsbuild/obj/actor_39_interact.rel
                                          [ actor_39_interact ]
C:/Users/amish/AppData/Local/Temp/_gbsbuild/obj/actor_39_update.rel
                                          [ actor_39_update ]
C:/Users/amish/AppData/Local/Temp/_gbsbuild/obj/actor_41_interact.rel
                                          [ actor_41_interact ]
C:/Users/amish/AppData/Local/Temp/_gbsbuild/obj/actor_45_interact.rel
                                          [ actor_45_interact ]
C:/Users/amish/AppData/Local/Temp/_gbsbuild/obj/actor_45_update.rel
                                          [ actor_45_update ]
C:/Users/amish/AppData/Local/Temp/_gbsbuild/obj/actor_46_interact.rel
                                          [ actor_46_interact ]
C:/Users/amish/AppData/Local/Temp/_gbsbuild/obj/actor_47_interact.rel
                                          [ actor_47_interact ]
C:/Users/amish/AppData/Local/Temp/_gbsbuild/obj/actor_47_update.rel
                                          [ actor_47_update ]
C:/Users/amish/AppData/Local/Temp/_gbsbuild/obj/actor_48_interact.rel
                                          [ actor_48_interact ]
C:/Users/amish/AppData/Local/Temp/_gbsbuild/obj/actor_48_update.rel
                                          [ actor_48_update ]
C:/Users/amish/AppData/Local/Temp/_gbsbuild/obj/actor_49_interact.rel
                                          [ actor_49_interact ]
C:/Users/amish/AppData/Local/Temp/_gbsbuild/obj/actor_51_interact.rel
                                          [ actor_51_interact ]
C:/Users/amish/AppData/Local/Temp/_gbsbuild/obj/actor_51_update.rel
                                          [ actor_51_update ]
C:/Users/amish/AppData/Local/Temp/_gbsbuild/obj/actor_52_interact.rel
                                          [ actor_52_interact ]
C:/Users/amish/AppData/Local/Temp/_gbsbuild/obj/actor_52_update.rel
                                          [ actor_52_update ]
C:/Users/amish/AppData/Local/Temp/_gbsbuild/obj/actor_53_interact.rel
                                          [ actor_53_interact ]
C:/Users/amish/AppData/Local/Temp/_gbsbuild/obj/actor_53_update.rel
                                          [ actor_53_update ]
C:/Users/amish/AppData/Local/Temp/_gbsbuild/obj/actor_54_update.rel
                                          [ actor_54_update ]
C:/Users/amish/AppData/Local/Temp/_gbsbuild/obj/actor_55_interact.rel
                                          [ actor_55_interact ]
C:/Users/amish/AppData/Local/Temp/_gbsbuild/obj/actor_56_update.rel
                                          [ actor_56_update ]
C:/Users/amish/AppData/Local/Temp/_gbsbuild/obj/actor_59_interact.rel
                                          [ actor_59_interact ]
C:/Users/amish/AppData/Local/Temp/_gbsbuild/obj/actor_59_update.rel
                                          [ actor_59_update ]
C:/Users/amish/AppData/Local/Temp/_gbsbuild/obj/actor_60_interact.rel
                                          [ actor_60_interact ]
C:/Users/amish/AppData/Local/Temp/_gbsbuild/obj/actor_61_interact.rel
                                          [ actor_61_interact ]
C:/Users/amish/AppData/Local/Temp/_gbsbuild/obj/actor_62_interact.rel
                                          [ actor_62_interact ]
C:/Users/amish/AppData/Local/Temp/_gbsbuild/obj/actor_62_update.rel
                                          [ actor_62_update ]
C:/Users/amish/AppData/Local/Temp/_gbsbuild/obj/actor_64_interact.rel
                                          [ actor_64_interact ]
C:/Users/amish/AppData/Local/Temp/_gbsbuild/obj/actor_65_interact.rel
                                          [ actor_65_interact ]
C:/Users/amish/AppData/Local/Temp/_gbsbuild/obj/actor_65_update.rel
                                          [ actor_65_update ]
C:/Users/amish/AppData/Local/Temp/_gbsbuild/obj/actor_66_interact.rel
                                          [ actor_66_interact ]
C:/Users/amish/AppData/Local/Temp/_gbsbuild/obj/actor_66_update.rel
                                          [ actor_66_update ]
C:/Users/amish/AppData/Local/Temp/_gbsbuild/obj/actor_67_interact.rel
                                          [ actor_67_interact ]
C:/Users/amish/AppData/Local/Temp/_gbsbuild/obj/actor_67_update.rel
                                          [ actor_67_update ]
C:/Users/amish/AppData/Local/Temp/_gbsbuild/obj/actor_68_update.rel
                                          [ actor_68_update ]
C:/Users/amish/AppData/Local/Temp/_gbsbuild/obj/actor_70_interact.rel
                                          [ actor_70_interact ]
C:/Users/amish/AppData/Local/Temp/_gbsbuild/obj/actor_71_interact.rel
                                          [ actor_71_interact ]
C:/Users/amish/AppData/Local/Temp/_gbsbuild/obj/actor_71_update.rel
                                          [ actor_71_update ]
C:/Users/amish/AppData/Local/Temp/_gbsbuild/obj/actor_72_interact.rel
                                          [ actor_72_interact ]
C:/Users/amish/AppData/Local/Temp/_gbsbuild/obj/actor_72_update.rel
                                          [ actor_72_update ]
C:/Users/amish/AppData/Local/Temp/_gbsbuild/obj/actor_73_interact.rel
                                          [ actor_73_interact ]
C:/Users/amish/AppData/Local/Temp/_gbsbuild/obj/actor_73_update.rel
                                          [ actor_73_update ]
C:/Users/amish/AppData/Local/Temp/_gbsbuild/obj/actor_74_interact.rel
                                          [ actor_74_interact ]
C:/Users/amish/AppData/Local/Temp/_gbsbuild/obj/bg_bg_creditscreen_theend_tilemap_attr.rel
                                          [ bg_bg_creditscreen_theend_tilema ]
C:/Users/amish/AppData/Local/Temp/_gbsbuild/obj/bg_bg_creditscreen_theend_tilemap.rel
                                          [ bg_bg_creditscreen_theend_tilema ]
C:/Users/amish/AppData/Local/Temp/_gbsbuild/obj/bg_bg_creditscreen_theend_tileset.rel
                                          [ bg_bg_creditscreen_theend_tilese ]
C:/Users/amish/AppData/Local/Temp/_gbsbuild/obj/bg_bg_creditscreen_theend.rel
                                          [ bg_bg_creditscreen_theend ]
C:/Users/amish/AppData/Local/Temp/_gbsbuild/obj/bg_bg_endscreen_happy_tilemap.rel
                                          [ bg_bg_endscreen_happy_tilemap ]
C:/Users/amish/AppData/Local/Temp/_gbsbuild/obj/bg_bg_endscreen_happy_tileset.rel
                                          [ bg_bg_endscreen_happy_tileset ]
C:/Users/amish/AppData/Local/Temp/_gbsbuild/obj/bg_bg_endscreen_happy.rel
                                          [ bg_bg_endscreen_happy ]
C:/Users/amish/AppData/Local/Temp/_gbsbuild/obj/bg_bg_endscreen_pee_tilemap.rel
                                          [ bg_bg_endscreen_pee_tilemap ]
C:/Users/amish/AppData/Local/Temp/_gbsbuild/obj/bg_bg_endscreen_pee_tileset.rel
                                          [ bg_bg_endscreen_pee_tileset ]
C:/Users/amish/AppData/Local/Temp/_gbsbuild/obj/bg_bg_endscreen_pee.rel
                                          [ bg_bg_endscreen_pee ]
C:/Users/amish/AppData/Local/Temp/_gbsbuild/obj/bg_bg_endscreen_sad_tilemap.rel
                                          [ bg_bg_endscreen_sad_tilemap ]
C:/Users/amish/AppData/Local/Temp/_gbsbuild/obj/bg_bg_endscreen_sad_tileset.rel
                                          [ bg_bg_endscreen_sad_tileset ]
C:/Users/amish/AppData/Local/Temp/_gbsbuild/obj/bg_bg_endscreen_sad.rel
                                          [ bg_bg_endscreen_sad ]
C:/Users/amish/AppData/Local/Temp/_gbsbuild/obj/bg_bg_endscreen_shake_tilemap.rel
                                          [ bg_bg_endscreen_shake_tilemap ]
C:/Users/amish/AppData/Local/Temp/_gbsbuild/obj/bg_bg_endscreen_shake_tileset.rel
                                          [ bg_bg_endscreen_shake_tileset ]
C:/Users/amish/AppData/Local/Temp/_gbsbuild/obj/bg_bg_endscreen_shake.rel
                                          [ bg_bg_endscreen_shake ]
C:/Users/amish/AppData/Local/Temp/_gbsbuild/obj/bg_bg_endscreen_tilemap_attr.rel
                                          [ bg_bg_endscreen_tilemap_attr ]
C:/Users/amish/AppData/Local/Temp/_gbsbuild/obj/bg_bg_endscreen_tilemap.rel
                                          [ bg_bg_endscreen_tilemap ]
C:/Users/amish/AppData/Local/Temp/_gbsbuild/obj/bg_bg_endscreen_tileset.rel
                                          [ bg_bg_endscreen_tileset ]
C:/Users/amish/AppData/Local/Temp/_gbsbuild/obj/bg_bg_endscreen.rel
                                          [ bg_bg_endscreen ]
C:/Users/amish/AppData/Local/Temp/_gbsbuild/obj/bg_bg_level1_tilemap_attr.rel
                                          [ bg_bg_level1_tilemap_attr ]
C:/Users/amish/AppData/Local/Temp/_gbsbuild/obj/bg_bg_level1_tilemap.rel
                                          [ bg_bg_level1_tilemap ]
C:/Users/amish/AppData/Local/Temp/_gbsbuild/obj/bg_bg_level1_tileset.rel
                                          [ bg_bg_level1_tileset ]
C:/Users/amish/AppData/Local/Temp/_gbsbuild/obj/bg_bg_level1.rel
                                          [ bg_bg_level1 ]
C:/Users/amish/AppData/Local/Temp/_gbsbuild/obj/bg_bg_level2_tilemap_attr.rel
                                          [ bg_bg_level2_tilemap_attr ]
C:/Users/amish/AppData/Local/Temp/_gbsbuild/obj/bg_bg_level2_tilemap.rel
                                          [ bg_bg_level2_tilemap ]
C:/Users/amish/AppData/Local/Temp/_gbsbuild/obj/bg_bg_level2_tileset.rel
                                          [ bg_bg_level2_tileset ]
C:/Users/amish/AppData/Local/Temp/_gbsbuild/obj/bg_bg_level2.rel
                                          [ bg_bg_level2 ]
C:/Users/amish/AppData/Local/Temp/_gbsbuild/obj/bg_bg_level3_longer_new_tilemap_attr.rel
                                          [ bg_bg_level3_longer_new_tilemap_ ]
C:/Users/amish/AppData/Local/Temp/_gbsbuild/obj/bg_bg_level3_longer_new_tilemap.rel
                                          [ bg_bg_level3_longer_new_tilemap ]
C:/Users/amish/AppData/Local/Temp/_gbsbuild/obj/bg_bg_level3_longer_new_tileset.rel
                                          [ bg_bg_level3_longer_new_tileset ]
C:/Users/amish/AppData/Local/Temp/_gbsbuild/obj/bg_bg_level3_longer_new.rel
                                          [ bg_bg_level3_longer_new ]
C:/Users/amish/AppData/Local/Temp/_gbsbuild/obj/bg_bg_openingscreen_tilemap_attr.rel
                                          [ bg_bg_openingscreen_tilemap_attr ]
C:/Users/amish/AppData/Local/Temp/_gbsbuild/obj/bg_bg_openingscreen_tilemap.rel
                                          [ bg_bg_openingscreen_tilemap ]
C:/Users/amish/AppData/Local/Temp/_gbsbuild/obj/bg_bg_openingscreen_tileset.rel
                                          [ bg_bg_openingscreen_tileset ]
C:/Users/amish/AppData/Local/Temp/_gbsbuild/obj/bg_bg_openingscreen.rel
                                          [ bg_bg_openingscreen ]
C:/Users/amish/AppData/Local/Temp/_gbsbuild/obj/bg_bg_startscreen_final_tilemap.rel
                                          [ bg_bg_startscreen_final_tilemap ]
C:/Users/amish/AppData/Local/Temp/_gbsbuild/obj/bg_bg_startscreen_final_tileset.rel
                                          [ bg_bg_startscreen_final_tileset ]
C:/Users/amish/AppData/Local/Temp/_gbsbuild/obj/bg_bg_startscreen_final.rel
                                          [ bg_bg_startscreen_final ]
C:/Users/amish/AppData/Local/Temp/_gbsbuild/obj/bg_credit_red_tilemap.rel
                                          [ bg_credit_red_tilemap ]
C:/Users/amish/AppData/Local/Temp/_gbsbuild/obj/bg_credit_red_tileset.rel
                                          [ bg_credit_red_tileset ]
C:/Users/amish/AppData/Local/Temp/_gbsbuild/obj/bg_credit_red.rel
                                          [ bg_credit_red ]
C:/Users/amish/AppData/Local/Temp/_gbsbuild/obj/bg_credit_robin_tilemap.rel
                                          [ bg_credit_robin_tilemap ]
C:/Users/amish/AppData/Local/Temp/_gbsbuild/obj/bg_credit_robin_tileset.rel
                                          [ bg_credit_robin_tileset ]
C:/Users/amish/AppData/Local/Temp/_gbsbuild/obj/bg_credit_robin.rel
                                          [ bg_credit_robin ]
C:/Users/amish/AppData/Local/Temp/_gbsbuild/obj/bg_credit_ryan_tilemap.rel
                                          [ bg_credit_ryan_tilemap ]
C:/Users/amish/AppData/Local/Temp/_gbsbuild/obj/bg_credit_ryan_tileset.rel
                                          [ bg_credit_ryan_tileset ]
C:/Users/amish/AppData/Local/Temp/_gbsbuild/obj/bg_credit_ryan.rel
                                          [ bg_credit_ryan ]
C:/Users/amish/AppData/Local/Temp/_gbsbuild/obj/bg_credit_twinkie_tilemap.rel
                                          [ bg_credit_twinkie_tilemap ]
C:/Users/amish/AppData/Local/Temp/_gbsbuild/obj/bg_credit_twinkie_tileset.rel
                                          [ bg_credit_twinkie_tileset ]
C:/Users/amish/AppData/Local/Temp/_gbsbuild/obj/bg_credit_twinkie.rel
                                          [ bg_credit_twinkie ]
C:/Users/amish/AppData/Local/Temp/_gbsbuild/obj/cursor_image.rel
                                          [ cursor_image ]
C:/Users/amish/AppData/Local/Temp/_gbsbuild/obj/font_gbs_mono.rel
                                          [ font_gbs_mono ]
C:/Users/amish/AppData/Local/Temp/_gbsbuild/obj/frame_image.rel
                                          [ frame_image ]
C:/Users/amish/AppData/Local/Temp/_gbsbuild/obj/game_signature.rel
                                          [ game_signature ]
C:/Users/amish/AppData/Local/Temp/_gbsbuild/obj/song_introcutscene_Data.rel
                                          [ song_introcutscene_Data ]
C:/Users/amish/AppData/Local/Temp/_gbsbuild/obj/song_level2_Data.rel
                                          [ song_level2_Data ]
C:/Users/amish/AppData/Local/Temp/_gbsbuild/obj/song_level3_Data.rel
                                          [ song_level3_Data ]
C:/Users/amish/AppData/Local/Temp/_gbsbuild/obj/song_red_test_Data.rel
                                          [ song_red_test_Data ]
C:/Users/amish/AppData/Local/Temp/_gbsbuild/obj/song_startmenu_Data.rel
                                          [ song_startmenu_Data ]
C:/Users/amish/AppData/Local/Temp/_gbsbuild/obj/song_victory_Data.rel
                                          [ song_victory_Data ]
C:/Users/amish/AppData/Local/Temp/_gbsbuild/obj/palette_0.rel
                                          [ palette_0 ]
C:/Users/amish/AppData/Local/Temp/_gbsbuild/obj/palette_1.rel
                                          [ palette_1 ]
C:/Users/amish/AppData/Local/Temp/_gbsbuild/obj/palette_2.rel
                                          [ palette_2 ]
C:/Users/amish/AppData/Local/Temp/_gbsbuild/obj/palette_3.rel
                                          [ palette_3 ]
C:/Users/amish/AppData/Local/Temp/_gbsbuild/obj/palette_4.rel
                                          [ palette_4 ]
C:/Users/amish/AppData/Local/Temp/_gbsbuild/obj/palette_5.rel
                                          [ palette_5 ]
C:/Users/amish/AppData/Local/Temp/_gbsbuild/obj/palette_6.rel
                                          [ palette_6 ]
C:/Users/amish/AppData/Local/Temp/_gbsbuild/obj/palette_7.rel
                                          [ palette_7 ]
C:/Users/amish/AppData/Local/Temp/_gbsbuild/obj/scene_0_actors.rel
                                          [ scene_0_actors ]
C:/Users/amish/AppData/Local/Temp/_gbsbuild/obj/scene_0_collisions.rel
                                          [ scene_0_collisions ]
C:/Users/amish/AppData/Local/Temp/_gbsbuild/obj/scene_0_init.rel
                                          [ scene_0_init ]
C:/Users/amish/AppData/Local/Temp/_gbsbuild/obj/scene_0_sprites.rel
                                          [ scene_0_sprites ]
C:/Users/amish/AppData/Local/Temp/_gbsbuild/obj/scene_0_triggers.rel
                                          [ scene_0_triggers ]
C:/Users/amish/AppData/Local/Temp/_gbsbuild/obj/scene_0.rel
                                          [ scene_0 ]
C:/Users/amish/AppData/Local/Temp/_gbsbuild/obj/scene_10_actors.rel
                                          [ scene_10_actors ]
C:/Users/amish/AppData/Local/Temp/_gbsbuild/obj/scene_10_collisions.rel
                                          [ scene_10_collisions ]
C:/Users/amish/AppData/Local/Temp/_gbsbuild/obj/scene_10_init.rel
                                          [ scene_10_init ]
C:/Users/amish/AppData/Local/Temp/_gbsbuild/obj/scene_10_sprites.rel
                                          [ scene_10_sprites ]
C:/Users/amish/AppData/Local/Temp/_gbsbuild/obj/scene_10.rel
                                          [ scene_10 ]
C:/Users/amish/AppData/Local/Temp/_gbsbuild/obj/scene_11_collisions.rel
                                          [ scene_11_collisions ]
C:/Users/amish/AppData/Local/Temp/_gbsbuild/obj/scene_11_init.rel
                                          [ scene_11_init ]
C:/Users/amish/AppData/Local/Temp/_gbsbuild/obj/scene_11.rel
                                          [ scene_11 ]
C:/Users/amish/AppData/Local/Temp/_gbsbuild/obj/scene_12_collisions.rel
                                          [ scene_12_collisions ]
C:/Users/amish/AppData/Local/Temp/_gbsbuild/obj/scene_12_init.rel
                                          [ scene_12_init ]
C:/Users/amish/AppData/Local/Temp/_gbsbuild/obj/scene_12.rel
                                          [ scene_12 ]
C:/Users/amish/AppData/Local/Temp/_gbsbuild/obj/scene_13_collisions.rel
                                          [ scene_13_collisions ]
C:/Users/amish/AppData/Local/Temp/_gbsbuild/obj/scene_13_init.rel
                                          [ scene_13_init ]
C:/Users/amish/AppData/Local/Temp/_gbsbuild/obj/scene_13.rel
                                          [ scene_13 ]
C:/Users/amish/AppData/Local/Temp/_gbsbuild/obj/scene_14_collisions.rel
                                          [ scene_14_collisions ]
C:/Users/amish/AppData/Local/Temp/_gbsbuild/obj/scene_14_init.rel
                                          [ scene_14_init ]
C:/Users/amish/AppData/Local/Temp/_gbsbuild/obj/scene_14.rel
                                          [ scene_14 ]
C:/Users/amish/AppData/Local/Temp/_gbsbuild/obj/scene_15_collisions.rel
                                          [ scene_15_collisions ]
C:/Users/amish/AppData/Local/Temp/_gbsbuild/obj/scene_15_init.rel
                                          [ scene_15_init ]
C:/Users/amish/AppData/Local/Temp/_gbsbuild/obj/scene_15.rel
                                          [ scene_15 ]
C:/Users/amish/AppData/Local/Temp/_gbsbuild/obj/scene_16_collisions.rel
                                          [ scene_16_collisions ]
C:/Users/amish/AppData/Local/Temp/_gbsbuild/obj/scene_16_init.rel
                                          [ scene_16_init ]
C:/Users/amish/AppData/Local/Temp/_gbsbuild/obj/scene_16.rel
                                          [ scene_16 ]
C:/Users/amish/AppData/Local/Temp/_gbsbuild/obj/scene_17_collisions.rel
                                          [ scene_17_collisions ]
C:/Users/amish/AppData/Local/Temp/_gbsbuild/obj/scene_17_init.rel
                                          [ scene_17_init ]
C:/Users/amish/AppData/Local/Temp/_gbsbuild/obj/scene_17.rel
                                          [ scene_17 ]
C:/Users/amish/AppData/Local/Temp/_gbsbuild/obj/scene_18_actors.rel
                                          [ scene_18_actors ]
C:/Users/amish/AppData/Local/Temp/_gbsbuild/obj/scene_18_collisions.rel
                                          [ scene_18_collisions ]
C:/Users/amish/AppData/Local/Temp/_gbsbuild/obj/scene_18_init.rel
                                          [ scene_18_init ]
C:/Users/amish/AppData/Local/Temp/_gbsbuild/obj/scene_18_sprites.rel
                                          [ scene_18_sprites ]
C:/Users/amish/AppData/Local/Temp/_gbsbuild/obj/scene_18.rel
                                          [ scene_18 ]
C:/Users/amish/AppData/Local/Temp/_gbsbuild/obj/scene_19_actors.rel
                                          [ scene_19_actors ]
C:/Users/amish/AppData/Local/Temp/_gbsbuild/obj/scene_19_collisions.rel
                                          [ scene_19_collisions ]
C:/Users/amish/AppData/Local/Temp/_gbsbuild/obj/scene_19_init.rel
                                          [ scene_19_init ]
C:/Users/amish/AppData/Local/Temp/_gbsbuild/obj/scene_19_sprites.rel
                                          [ scene_19_sprites ]
C:/Users/amish/AppData/Local/Temp/_gbsbuild/obj/scene_19.rel
                                          [ scene_19 ]
C:/Users/amish/AppData/Local/Temp/_gbsbuild/obj/scene_9_actors.rel
                                          [ scene_9_actors ]
C:/Users/amish/AppData/Local/Temp/_gbsbuild/obj/scene_9_collisions.rel
                                          [ scene_9_collisions ]
C:/Users/amish/AppData/Local/Temp/_gbsbuild/obj/scene_9_init.rel
                                          [ scene_9_init ]
C:/Users/amish/AppData/Local/Temp/_gbsbuild/obj/scene_9_sprites.rel
                                          [ scene_9_sprites ]
C:/Users/amish/AppData/Local/Temp/_gbsbuild/obj/scene_9_triggers.rel
                                          [ scene_9_triggers ]
C:/Users/amish/AppData/Local/Temp/_gbsbuild/obj/scene_9.rel
                                          [ scene_9 ]
C:/Users/amish/AppData/Local/Temp/_gbsbuild/obj/scene_logo_collisions.rel
                                          [ scene_logo_collisions ]
C:/Users/amish/AppData/Local/Temp/_gbsbuild/obj/scene_logo_init.rel
                                          [ scene_logo_init ]
C:/Users/amish/AppData/Local/Temp/_gbsbuild/obj/scene_logo.rel
                                          [ scene_logo ]
C:/Users/amish/AppData/Local/Temp/_gbsbuild/obj/scene_parallax_example_actors.rel
                                          [ scene_parallax_example_actors ]
C:/Users/amish/AppData/Local/Temp/_gbsbuild/obj/scene_parallax_example_collisions.rel
                                          [ scene_parallax_example_collision ]
C:/Users/amish/AppData/Local/Temp/_gbsbuild/obj/scene_parallax_example_init.rel
                                          [ scene_parallax_example_init ]
C:/Users/amish/AppData/Local/Temp/_gbsbuild/obj/scene_parallax_example_sprites.rel
                                          [ scene_parallax_example_sprites ]
C:/Users/amish/AppData/Local/Temp/_gbsbuild/obj/scene_parallax_example_triggers.rel
                                          [ scene_parallax_example_triggers ]
C:/Users/amish/AppData/Local/Temp/_gbsbuild/obj/scene_parallax_example.rel
                                          [ scene_parallax_example ]
C:/Users/amish/AppData/Local/Temp/_gbsbuild/obj/scene_title_screen_collisions.rel
                                          [ scene_title_screen_collisions ]
C:/Users/amish/AppData/Local/Temp/_gbsbuild/obj/scene_title_screen_init.rel
                                          [ scene_title_screen_init ]
C:/Users/amish/AppData/Local/Temp/_gbsbuild/obj/scene_title_screen.rel
                                          [ scene_title_screen ]
C:/Users/amish/AppData/Local/Temp/_gbsbuild/obj/script_12.rel
                                          [ script_12 ]
C:/Users/amish/AppData/Local/Temp/_gbsbuild/obj/script_15.rel
                                          [ script_15 ]
C:/Users/amish/AppData/Local/Temp/_gbsbuild/obj/script_engine_init.rel
                                          [  ]
C:/Users/amish/AppData/Local/Temp/_gbsbuild/obj/script_init_menu.rel
                                          [ script_init_menu ]
C:/Users/amish/AppData/Local/Temp/_gbsbuild/obj/script_input_0.rel
                                          [ script_input_0 ]
C:/Users/amish/AppData/Local/Temp/_gbsbuild/obj/script_input_1.rel
                                          [ script_input_1 ]
C:/Users/amish/AppData/Local/Temp/_gbsbuild/obj/script_input_2.rel
                                          [ script_input_2 ]
C:/Users/amish/AppData/Local/Temp/_gbsbuild/obj/script_input_3.rel
                                          [ script_input_3 ]
C:/Users/amish/AppData/Local/Temp/_gbsbuild/obj/sound_legacy_0.rel
                                          [ sound_legacy_0 ]
C:/Users/amish/AppData/Local/Temp/_gbsbuild/obj/sprite_0_peeanim_sad_tileset.rel
                                          [ sprite_0_peeanim_sad_tileset ]
C:/Users/amish/AppData/Local/Temp/_gbsbuild/obj/sprite_0_peeanim_sad.rel
                                          [ sprite_0_peeanim_sad ]
C:/Users/amish/AppData/Local/Temp/_gbsbuild/obj/sprite_chemical_cloud_tileset.rel
                                          [ sprite_chemical_cloud_tileset ]
C:/Users/amish/AppData/Local/Temp/_gbsbuild/obj/sprite_chemical_cloud.rel
                                          [ sprite_chemical_cloud ]
C:/Users/amish/AppData/Local/Temp/_gbsbuild/obj/sprite_chemical_vat_rev_ani_tileset.rel
                                          [ sprite_chemical_vat_rev_ani_tile ]
C:/Users/amish/AppData/Local/Temp/_gbsbuild/obj/sprite_chemical_vat_rev_ani.rel
                                          [ sprite_chemical_vat_rev_ani ]
C:/Users/amish/AppData/Local/Temp/_gbsbuild/obj/sprite_cloud_player_sprite_tileset.rel
                                          [ sprite_cloud_player_sprite_tiles ]
C:/Users/amish/AppData/Local/Temp/_gbsbuild/obj/sprite_cloud_player_sprite.rel
                                          [ sprite_cloud_player_sprite ]
C:/Users/amish/AppData/Local/Temp/_gbsbuild/obj/sprite_flame_baby_idling_an_tileset.rel
                                          [ sprite_flame_baby_idling_an_tile ]
C:/Users/amish/AppData/Local/Temp/_gbsbuild/obj/sprite_flame_baby_idling_an.rel
                                          [ sprite_flame_baby_idling_an ]
C:/Users/amish/AppData/Local/Temp/_gbsbuild/obj/sprite_fly_enemysingle_anim_tileset.rel
                                          [ sprite_fly_enemysingle_anim_tile ]
C:/Users/amish/AppData/Local/Temp/_gbsbuild/obj/sprite_fly_enemysingle_anim.rel
                                          [ sprite_fly_enemysingle_anim ]
C:/Users/amish/AppData/Local/Temp/_gbsbuild/obj/sprite_gbs_font_small_tileset.rel
                                          [ sprite_gbs_font_small_tileset ]
C:/Users/amish/AppData/Local/Temp/_gbsbuild/obj/sprite_gbs_font_small.rel
                                          [ sprite_gbs_font_small ]
C:/Users/amish/AppData/Local/Temp/_gbsbuild/obj/sprite_plant_stages_v1_tileset.rel
                                          [ sprite_plant_stages_v1_tileset ]
C:/Users/amish/AppData/Local/Temp/_gbsbuild/obj/sprite_plant_stages_v1.rel
                                          [ sprite_plant_stages_v1 ]
C:/Users/amish/AppData/Local/Temp/_gbsbuild/obj/sprite_player_platform_tileset.rel
                                          [ sprite_player_platform_tileset ]
C:/Users/amish/AppData/Local/Temp/_gbsbuild/obj/sprite_player_platform.rel
                                          [ sprite_player_platform ]
C:/Users/amish/AppData/Local/Temp/_gbsbuild/obj/sprite_player_tileset.rel
                                          [ sprite_player_tileset ]
C:/Users/amish/AppData/Local/Temp/_gbsbuild/obj/sprite_player.rel
                                          [ sprite_player ]
C:/Users/amish/AppData/Local/Temp/_gbsbuild/obj/sprite_rain_tileset.rel
                                          [ sprite_rain_tileset ]
C:/Users/amish/AppData/Local/Temp/_gbsbuild/obj/sprite_rain.rel
                                          [ sprite_rain ]
C:/Users/amish/AppData/Local/Temp/_gbsbuild/obj/sprite_soot_idle_anim_tileset.rel
                                          [ sprite_soot_idle_anim_tileset ]
C:/Users/amish/AppData/Local/Temp/_gbsbuild/obj/sprite_soot_idle_anim.rel
                                          [ sprite_soot_idle_anim ]
C:/Users/amish/AppData/Local/Temp/_gbsbuild/obj/sprite_sprite_raindrop_tileset.rel
                                          [ sprite_sprite_raindrop_tileset ]
C:/Users/amish/AppData/Local/Temp/_gbsbuild/obj/sprite_sprite_raindrop.rel
                                          [ sprite_sprite_raindrop ]
C:/Users/amish/AppData/Local/Temp/_gbsbuild/obj/sprite_tree_stump_tileset.rel
                                          [ sprite_tree_stump_tileset ]
C:/Users/amish/AppData/Local/Temp/_gbsbuild/obj/sprite_tree_stump.rel
                                          [ sprite_tree_stump ]
C:/Users/amish/AppData/Local/Temp/_gbsbuild/obj/spritesheet_none.rel
                                          [ spritesheet_none ]
C:/Users/amish/AppData/Local/Temp/_gbsbuild/obj/trigger_0_interact.rel
                                          [ trigger_0_interact ]
C:/Users/amish/AppData/Local/Temp/_gbsbuild/obj/trigger_1_interact.rel
                                          [ trigger_1_interact ]
C:/Users/amish/AppData/Local/Temp/_gbsbuild/obj/trigger_2_interact.rel
                                          [ trigger_2_interact ]
C:/Users/amish/AppData/Local/Temp/_gbsbuild/obj/trigger_3_interact.rel
                                          [ trigger_3_interact ]
C:/Users/amish/AppData/Local/Temp/_gbsbuild/obj/trigger_4_interact.rel
                                          [ trigger_4_interact ]
C:/Users/amish/AppData/Local/Temp/_gbsbuild/obj/trigger_40_interact.rel
                                          [ trigger_40_interact ]
C:/Users/amish/AppData/Local/Temp/_gbsbuild/obj/trigger_5_interact.rel
                                          [ trigger_5_interact ]
C:/Users/amish/AppData/Local/Temp/_gbsbuild/obj/trigger_6_interact.rel
                                          [ trigger_6_interact ]
C:/Users/amish/AppData/Local/Temp/_gbsbuild/obj/trigger_7_interact.rel
                                          [ trigger_7_interact ]
C:/Users/amish/AppData/Local/Temp/_gbsbuild/obj/main.rel
                                          [ main ]
C:/Users/amish/AppData/Local/Temp/_gbsbuild/obj/adventure.rel
                                          [ adventure ]
C:/Users/amish/AppData/Local/Temp/_gbsbuild/obj/logo.rel
                                          [ logo ]
C:/Users/amish/AppData/Local/Temp/_gbsbuild/obj/platform.rel
                                          [ platform ]
C:/Users/amish/AppData/Local/Temp/_gbsbuild/obj/pointnclick.rel
                                          [ pointnclick ]
C:/Users/amish/AppData/Local/Temp/_gbsbuild/obj/shmup.rel
                                          [ shmup ]
C:/Users/amish/AppData/Local/Temp/_gbsbuild/obj/states_ptrs.rel
                                          [  ]
C:/Users/amish/AppData/Local/Temp/_gbsbuild/obj/topdown.rel
                                          [ topdown ]


Libraries Linked                          [ object file ]

C:\Users\amish\AppData\Local\Temp/_gbstools/gbdk/lib/small/asxxxx/gb/gb.lib
                                          [ fill_rect_wi.o ]
C:\Users\amish\AppData\Local\Temp/_gbstools/gbdk/lib/small/asxxxx/gbz80/gbz80.lib
                                          [ rand.o ]
lib/hUGEDriver.lib                        [ hUGEDriver.obj.o ]
C:\Users\amish\AppData\Local\Temp/_gbstools/gbdk/lib/small/asxxxx/gb/gb.lib
                                          [ sfr.o ]
C:\Users\amish\AppData\Local\Temp/_gbstools/gbdk/lib/small/asxxxx/gb/gb.lib
                                          [ get_data.o ]
C:\Users\amish\AppData\Local\Temp/_gbstools/gbdk/lib/small/asxxxx/gb/gb.lib
                                          [ get_tile.o ]
C:\Users\amish\AppData\Local\Temp/_gbstools/gbdk/lib/small/asxxxx/gb/gb.lib
                                          [ cgb_palettes.o ]
C:\Users\amish\AppData\Local\Temp/_gbstools/gbdk/lib/small/asxxxx/gb/gb.lib
                                          [ metasprites_hide_spr.o ]
C:\Users\amish\AppData\Local\Temp/_gbstools/gbdk/lib/small/asxxxx/gbz80/gbz80.lib
                                          [ mul.o ]
C:\Users\amish\AppData\Local\Temp/_gbstools/gbdk/lib/small/asxxxx/gbz80/gbz80.lib
                                          [ abs.o ]
C:\Users\amish\AppData\Local\Temp/_gbstools/gbdk/lib/small/asxxxx/gb/gb.lib
                                          [ set_wi_t.o ]
C:\Users\amish\AppData\Local\Temp/_gbstools/gbdk/lib/small/asxxxx/gb/gb.lib
                                          [ set_data.o ]
C:\Users\amish\AppData\Local\Temp/_gbstools/gbdk/lib/small/asxxxx/gbz80/gbz80.lib
                                          [ reverse.o ]
C:\Users\amish\AppData\Local\Temp/_gbstools/gbdk/lib/small/asxxxx/gb/gb.lib
                                          [ far_ptr.o ]
C:\Users\amish\AppData\Local\Temp/_gbstools/gbdk/lib/small/asxxxx/gb/gb.lib
                                          [ sgb.o ]
C:\Users\amish\AppData\Local\Temp/_gbstools/gbdk/lib/small/asxxxx/gb/gb.lib
                                          [ lcd.o ]
C:\Users\amish\AppData\Local\Temp/_gbstools/gbdk/lib/small/asxxxx/gb/gb.lib
                                          [ fill_rect.o ]
C:\Users\amish\AppData\Local\Temp/_gbstools/gbdk/lib/small/asxxxx/gb/gb.lib
                                          [ cpy_data.o ]
C:\Users\amish\AppData\Local\Temp/_gbstools/gbdk/lib/small/asxxxx/gb/gb.lib
                                          [ fill_rect_bk.o ]
C:\Users\amish\AppData\Local\Temp/_gbstools/gbdk/lib/small/asxxxx/gb/gb.lib
                                          [ pad.o ]
C:\Users\amish\AppData\Local\Temp/_gbstools/gbdk/lib/small/asxxxx/gb/gb.lib
                                          [ metasprites.o ]
C:\Users\amish\AppData\Local\Temp/_gbstools/gbdk/lib/small/asxxxx/gbz80/gbz80.lib
                                          [ __sdcc_call_hl.o ]
C:\Users\amish\AppData\Local\Temp/_gbstools/gbdk/lib/small/asxxxx/gbz80/gbz80.lib
                                          [ _memcpy.o ]
C:\Users\amish\AppData\Local\Temp/_gbstools/gbdk/lib/small/asxxxx/gbz80/gbz80.lib
                                          [ _memset.o ]
C:\Users\amish\AppData\Local\Temp/_gbstools/gbdk/lib/small/asxxxx/gb/gb.lib
                                          [ set_xy_t.o ]
C:\Users\amish\AppData\Local\Temp/_gbstools/gbdk/lib/small/asxxxx/gb/gb.lib
                                          [ cgb.o ]
C:\Users\amish\AppData\Local\Temp/_gbstools/gbdk/lib/small/asxxxx/gbz80/gbz80.lib
                                          [ div.o ]
C:\Users\amish\AppData\Local\Temp/_gbstools/gbdk/lib/small/asxxxx/gb/gb.lib
                                          [ set_bk_t.o ]

ASxxxx Linker V03.00 + NoICE + sdld,  page 77.

User Base Address Definitions

_DATA=0xC0A0
_CODE=0x0200
ASxxxx Linker V03.00 + NoICE + sdld,  page 78.

User Global Definitions

.STACK=0xDF00
_shadow_OAM=0xC000
.refresh_OAM=0xFF80
__start_save=12

