ASxxxx Linker V03.00 + NoICE + sdld,  page 1.
Hexadecimal  [32-Bits]

Area                                    Addr        Size        Decimal Bytes (Attributes)
--------------------------------        ----        ----        ------- ----- ------------
.  .ABS.                            00000000    00000000 =           0. bytes (ABS,CON)

      Value  Global                              Global Defined In Module
      -----  --------------------------------   ------------------------
     00000000  .__.ABS.                           
     00000000  _rRAMG                             
     00000000  l__BASE                         
     00000000  l__BSS                          
     00000000  l__CABS                         
     00000000  l__CODE_0                       
     00000000  l__CRASH_HEADER                 
     00000000  l__CRASH_SCRATCH                
     00000000  l__DABS                         
     00000000  l__EHL_TRAMPOLINE               
     00000000  l__HEADER                       
     00000000  l__HEADER_LCD                   
     00000000  l__HEADER_SIO                   
     00000000  l__HEADER_TIMER                 
     00000000  l__HEAP                         
     00000000  l__HRAM                         
     00000000  l__LIT                          
     00000000  s__CABS                         
     00000000  s__CRASH_HEADER                 
     00000000  s__CRASH_HEADER0                
     00000000  s__CRASH_HEADER1                
     00000000  s__CRASH_SCRATCH                
     00000000  s__CRASH_SCRATCH2               
     00000000  s__DABS                         
     00000000  s__EHL_TRAMPOLINE               
     00000000  s__EHL_TRAMPOLINE0              
     00000000  s__HEADER                       
     00000000  s__HEADER0                      
     00000000  s__HEADER1                      
     00000000  s__HEADER10                     
     00000000  s__HEADER11                     
     00000000  s__HEADER2                      
     00000000  s__HEADER3                      
     00000000  s__HEADER4                      
     00000000  s__HEADER5                      
     00000000  s__HEADER6                      
     00000000  s__HEADER7                      
     00000000  s__HEADER8                      
     00000000  s__HEADER9                      
     00000000  s__HEADER_LCD                   
     00000000  s__HEADER_LCD0                  
     00000000  s__HEADER_SIO                   
     00000000  s__HEADER_SIO0                  
     00000000  s__HEADER_TIMER                 
     00000000  s__HEADER_TIMER0                
     00000000  s__HEADERa                      
     00000000  s__HEADERb                      
     00000000  s__HEADERc                      
     00000000  s__HEADERd                      
     00000000  s__HEADERe                      
ASxxxx Linker V03.00 + NoICE + sdld,  page 2.
Hexadecimal  [32-Bits]

Area                                    Addr        Size        Decimal Bytes (Attributes)
--------------------------------        ----        ----        ------- ----- ------------
.  .ABS.                            00000000    00000000 =           0. bytes (ABS,CON)

      Value  Global                              Global Defined In Module
      -----  --------------------------------   ------------------------
     00000000  s__HEADERf                      
     00000000  s__HRAM                         
     00000000  s__HRAM12                       
     00000001  ___bank_ACTOR                      actor
     00000001  ___bank_VM_ACTOR                   vm_actor
     00000001  ___bank_VM_SGB                     vm_sgb
     00000001  ___bank_bg_room_tileset            bg_room_tileset
     00000001  b_activate_actor                   actor
     00000001  b_activate_actors_in_col           actor
     00000001  b_activate_actors_in_row           actor
     00000001  b_actor_at_tile                    actor
     00000001  b_actor_get_frame_offset           actor
     00000001  b_actor_in_front_of_player         actor
     00000001  b_actor_overlapping_bb             actor
     00000001  b_actor_overlapping_player         actor
     00000001  b_actor_set_anim_idle              actor
     00000001  b_actor_set_anim_moving            actor
     00000001  b_actor_set_dir                    actor
     00000001  b_actor_set_frame_offset           actor
     00000001  b_actor_set_frames                 actor
     00000001  b_actors_handle_player_collision   actor
     00000001  b_actors_init                      actor
     00000001  b_check_collision_in_direction     actor
     00000001  b_deactivate_actor                 actor
     00000001  b_player_init                      actor
     00000001  b_ui_draw_frame                    ui
     00000001  b_ui_draw_text_buffer_char         ui
     00000001  b_ui_init                          ui
     00000001  b_ui_load_tiles                    ui
     00000001  b_ui_run_menu                      ui
     00000001  b_ui_run_modal                     ui
     00000001  b_ui_set_start_tile                ui
     00000001  b_vm_actor_activate                vm_actor
     00000001  b_vm_actor_deactivate              vm_actor
     00000001  b_vm_actor_emote                   vm_actor
     00000001  b_vm_actor_get_angle               vm_actor
     00000001  b_vm_actor_get_anim_frame          vm_actor
     00000001  b_vm_actor_get_dir                 vm_actor
     00000001  b_vm_actor_get_pos                 vm_actor
     00000001  b_vm_actor_move_cancel             vm_actor
     00000001  b_vm_actor_move_to                 vm_actor
     00000001  b_vm_actor_replace_tile            vm_actor
     00000001  b_vm_actor_set_anim                vm_actor
     00000001  b_vm_actor_set_anim_frame          vm_actor
     00000001  b_vm_actor_set_anim_set            vm_actor
     00000001  b_vm_actor_set_anim_tick           vm_actor
     00000001  b_vm_actor_set_bounds              vm_actor
     00000001  b_vm_actor_set_dir                 vm_actor
     00000001  b_vm_actor_set_flags               vm_actor
     00000001  b_vm_actor_set_move_speed          vm_actor
     00000001  b_vm_actor_set_pos                 vm_actor
ASxxxx Linker V03.00 + NoICE + sdld,  page 3.
Hexadecimal  [32-Bits]

Area                                    Addr        Size        Decimal Bytes (Attributes)
--------------------------------        ----        ----        ------- ----- ------------
.  .ABS.                            00000000    00000000 =           0. bytes (ABS,CON)

      Value  Global                              Global Defined In Module
      -----  --------------------------------   ------------------------
     00000001  b_vm_actor_set_spritesheet         vm_actor
     00000001  b_vm_actor_set_spritesheet_by_re   vm_actor
     00000001  b_vm_actor_terminate_update        vm_actor
     00000001  l__GSFINAL                      
     00000001  l__HEADER0                      
     00000001  l__HEADER11                     
     00000001  l__HEADER9                      
     00000001  l__HEADERa                      
     00000001  l__HEADERb                      
     00000001  l__HEADERd                      
     00000001  l__HEADERe                      
     00000002  ___bank_VM_MATH                    vm_math
     00000002  ___bank_actor_20_update            actor_20_update
     00000002  ___bank_bg_bg_level1_144px_tilem   bg_bg_level1_144px_tilemap
     00000002  ___bank_bg_bg_level1_144px_tilem   bg_bg_level1_144px_tilemap_a
     00000002  ___bank_bg_bg_level2_tilemap_att   bg_bg_level2_tilemap_attr
     00000002  ___bank_bg_leaving_earth_tilemap   bg_leaving_earth_tilemap_att
     00000002  b_vm_cos_scale                     vm_math
     00000002  b_vm_sin_scale                     vm_math
     00000002  l__HEADER5                      
     00000002  l__HEADERc                      
     00000002  l__HEADERf                      
     00000003  ___bank_VM_MUSIC                   vm_music
     00000003  ___bank_actor_36_update            actor_36_update
     00000003  ___bank_bg_bg_level2_tilemap       bg_bg_level2_tilemap
     00000003  ___bank_bg_leaving_earth_tilemap   bg_leaving_earth_tilemap
     00000003  ___bank_scene_parallax_example_c   scene_parallax_example_colli
     00000003  ___bank_scene_space_battle_colli   scene_space_battle_collision
     00000003  b_vm_music_mute                    vm_music
     00000003  b_vm_music_play                    vm_music
     00000003  b_vm_music_routine                 vm_music
     00000003  b_vm_music_setpos                  vm_music
     00000003  b_vm_music_stop                    vm_music
     00000003  b_vm_sfx_play                      vm_music
     00000003  b_vm_sound_mastervol               vm_music
     00000003  l__HEADER8                      
     00000003  l__HEADER_LCD0                  
     00000003  l__HRAM12                       
     00000004  ___bank_VM_MAIN                    vm
     00000004  ___bank_font_gbs_mono              font_gbs_mono
     00000004  ___bank_scene_9_actors             scene_9_actors
     00000004  ___bank_song_rulz_lightmood_0_Da   song_rulz_lightmood_0_Data
     00000004  b_platform_init                    platform
     00000004  b_platform_update                  platform
     00000004  b_script_detach_hthread            vm
     00000004  b_script_execute                   vm
     00000004  b_script_runner_init               vm
     00000004  b_script_terminate                 vm
     00000004  b_vm_call                          vm
     00000004  b_vm_call_far                      vm
     00000004  b_vm_get_indirect                  vm
ASxxxx Linker V03.00 + NoICE + sdld,  page 4.
Hexadecimal  [32-Bits]

Area                                    Addr        Size        Decimal Bytes (Attributes)
--------------------------------        ----        ----        ------- ----- ------------
.  .ABS.                            00000000    00000000 =           0. bytes (ABS,CON)

      Value  Global                              Global Defined In Module
      -----  --------------------------------   ------------------------
     00000004  b_vm_get_int16                     vm
     00000004  b_vm_get_int8                      vm
     00000004  b_vm_get_tlocal                    vm
     00000004  b_vm_get_uint8                     vm
     00000004  b_vm_idle                          vm
     00000004  b_vm_if                            vm
     00000004  b_vm_if_const                      vm
     00000004  b_vm_init_rng                      vm
     00000004  b_vm_invoke                        vm
     00000004  b_vm_join                          vm
     00000004  b_vm_jump                          vm
     00000004  b_vm_lock                          vm
     00000004  b_vm_loop                          vm
     00000004  b_vm_memcpy                        vm
     00000004  b_vm_memset                        vm
     00000004  b_vm_poll_loaded                   vm
     00000004  b_vm_pop                           vm
     00000004  b_vm_push                          vm
     00000004  b_vm_push_reference                vm
     00000004  b_vm_push_value                    vm
     00000004  b_vm_push_value_ind                vm
     00000004  b_vm_raise                         vm
     00000004  b_vm_rand                          vm
     00000004  b_vm_reserve                       vm
     00000004  b_vm_ret                           vm
     00000004  b_vm_ret_far                       vm
     00000004  b_vm_set                           vm
     00000004  b_vm_set_const                     vm
     00000004  b_vm_set_const_int16               vm
     00000004  b_vm_set_const_int8                vm
     00000004  b_vm_set_indirect                  vm
     00000004  b_vm_set_int16                     vm
     00000004  b_vm_set_int8                      vm
     00000004  b_vm_set_uint8                     vm
     00000004  b_vm_terminate                     vm
     00000004  b_vm_test_terminate                vm
     00000004  b_vm_unlock                        vm
     00000004  b_wait_frames                      vm
     00000004  l__CRASH_HEADER1                
     00000004  l__HEADER_SIO0                  
     00000004  l__HEADER_TIMER0                
     00000005  ___bank_VM_UI                      vm_ui
     00000005  ___bank_bg_bg_level2_tileset       bg_bg_level2_tileset
     00000005  ___bank_scene_9_collisions         scene_9_collisions
     00000005  ___bank_script_enemy_ship_hit_pl   script_enemy_ship_hit_playe
     00000005  ___bank_song_red_test_Data         song_red_test_Data
     00000005  ___bank_song_rulz_fastpacespeedr   song_rulz_fastpacespeedrace_
     00000005  ___bank_song_rulz_pause_undergro   song_rulz_pause_underground_
     00000005  b_do_load_palette                  data_manager
     00000005  b_load_background                  data_manager
     00000005  b_load_bkg_tileset                 data_manager
ASxxxx Linker V03.00 + NoICE + sdld,  page 5.
Hexadecimal  [32-Bits]

Area                                    Addr        Size        Decimal Bytes (Attributes)
--------------------------------        ----        ----        ------- ----- ------------
.  .ABS.                            00000000    00000000 =           0. bytes (ABS,CON)

      Value  Global                              Global Defined In Module
      -----  --------------------------------   ------------------------
     00000005  b_load_bounds                      data_manager
     00000005  b_load_emote                       data_manager
     00000005  b_load_init                        data_manager
     00000005  b_load_player                      data_manager
     00000005  b_load_scene                       data_manager
     00000005  b_load_sprite                      data_manager
     00000005  b_vm_choice                        vm_ui
     00000005  b_vm_display_text                  vm_ui
     00000005  b_vm_overlay_clear                 vm_ui
     00000005  b_vm_overlay_move_to               vm_ui
     00000005  b_vm_overlay_scroll                vm_ui
     00000005  b_vm_overlay_set_map               vm_ui
     00000005  b_vm_overlay_set_scroll            vm_ui
     00000005  b_vm_overlay_set_submap            vm_ui
     00000005  b_vm_overlay_set_submap_ex         vm_ui
     00000005  b_vm_overlay_setpos                vm_ui
     00000005  b_vm_overlay_show                  vm_ui
     00000005  b_vm_overlay_wait                  vm_ui
     00000005  b_vm_set_font                      vm_ui
     00000005  b_vm_set_text_sound                vm_ui
     00000005  b_vm_switch_text_layer             vm_ui
     00000005  l__CRASH_HEADER0                
     00000005  l__HEADER1                      
     00000006  ___bank_VM_GAMEBOY                 vm_gameboy
     00000006  ___bank_actor_22_interact          actor_22_interact
     00000006  ___bank_bg_bg_level1_144px_tiles   bg_bg_level1_144px_tileset
     00000006  ___bank_bg_logo_tileset            bg_logo_tileset
     00000006  ___bank_bg_titlescreen_tileset     bg_titlescreen_tileset
     00000006  ___bank_script_input_0             script_input_0
     00000006  ___bank_song_rulz_intro_0_Data     song_rulz_intro_0_Data
     00000006  ___bank_sprite_elephant            sprite_elephant
     00000006  ___bank_trigger_18_interact        trigger_18_interact
     00000006  b_adventure_init                   adventure
     00000006  b_adventure_update                 adventure
     00000006  b_projectile_launch                projectiles
     00000006  b_projectiles_init                 projectiles
     00000006  b_scroll_init                      scroll
     00000006  b_scroll_repaint                   scroll
     00000006  b_scroll_reset                     scroll
     00000006  b_scroll_update                    scroll
     00000006  b_shmup_init                       shmup
     00000006  b_shmup_update                     shmup
     00000006  b_topdown_init                     topdown
     00000006  b_topdown_update                   topdown
     00000006  b_vm_context_prepare               vm_gameboy
     00000006  b_vm_fade                          vm_gameboy
     00000006  b_vm_get_tile_xy                   vm_gameboy
     00000006  b_vm_input_attach                  vm_gameboy
     00000006  b_vm_input_detach                  vm_gameboy
     00000006  b_vm_input_get                     vm_gameboy
     00000006  b_vm_input_wait                    vm_gameboy
ASxxxx Linker V03.00 + NoICE + sdld,  page 6.
Hexadecimal  [32-Bits]

Area                                    Addr        Size        Decimal Bytes (Attributes)
--------------------------------        ----        ----        ------- ----- ------------
.  .ABS.                            00000000    00000000 =           0. bytes (ABS,CON)

      Value  Global                              Global Defined In Module
      -----  --------------------------------   ------------------------
     00000006  b_vm_load_tiles                    vm_gameboy
     00000006  b_vm_load_tileset                  vm_gameboy
     00000006  b_vm_poll                          vm_gameboy
     00000006  b_vm_replace_tile                  vm_gameboy
     00000006  b_vm_replace_tile_xy               vm_gameboy
     00000006  b_vm_rumble                        vm_gameboy
     00000006  b_vm_set_sprite_mode               vm_gameboy
     00000006  b_vm_set_sprites_visible           vm_gameboy
     00000006  b_vm_timer_prepare                 vm_gameboy
     00000006  b_vm_timer_reset                   vm_gameboy
     00000006  b_vm_timer_set                     vm_gameboy
     00000006  b_vm_timer_stop                    vm_gameboy
     00000006  l__HEADER7                      
     00000007  ___bank_VM_CAMERA                  vm_camera
     00000007  ___bank_VM_PALETTE                 vm_palette
     00000007  ___bank_VM_SIO                     vm_sio
     00000007  ___bank_actor_26_interact          actor_26_interact
     00000007  ___bank_bg_leaving_earth_tileset   bg_leaving_earth_tileset
     00000007  ___bank_bg_menu_page1_tileset      bg_menu_page1_tileset
     00000007  ___bank_bg_menu_page2_tileset      bg_menu_page2_tileset
     00000007  ___bank_scene_menu_page_1_actors   scene_menu_page_1_actors
     00000007  ___bank_scene_parallax_example_a   scene_parallax_example_actor
     00000007  ___bank_scene_space_battle_actor   scene_space_battle_actors
     00000007  ___bank_sprite_elephant_tileset    sprite_elephant_tileset
     00000007  ___bank_sprite_gbs_font_tileset    sprite_gbs_font_tileset
     00000007  ___bank_sprite_player_platform     sprite_player_platform
     00000007  ___bank_sprite_player_platform_t   sprite_player_platform_tiles
     00000007  ___bank_sprite_player_tileset      sprite_player_tileset
     00000007  ___bank_sprite_space_mine_tilese   sprite_space_mine_tileset
     00000007  ___bank_sprite_truck_temp_tilese   sprite_truck_temp_tileset
     00000007  b___HandleCrash_banked             
     00000007  b_camera_shake_frames              vm_camera
     00000007  b_core_reset                       core
     00000007  b_core_run                         core
     00000007  b_data_clear                       load_save
     00000007  b_data_init                        load_save
     00000007  b_data_load                        load_save
     00000007  b_data_peek                        load_save
     00000007  b_data_save                        load_save
     00000007  b_fade_applypalettechange          fade_manager
     00000007  b_fade_in                          fade_manager
     00000007  b_fade_in_modal                    fade_manager
     00000007  b_fade_init                        fade_manager
     00000007  b_fade_out                         fade_manager
     00000007  b_fade_out_modal                   fade_manager
     00000007  b_fade_setspeed                    fade_manager
     00000007  b_fade_update                      fade_manager
     00000007  b_gbprinter_detect                 gbprinter
     00000007  b_gbprinter_print_overlay          gbprinter
     00000007  b_pointnclick_init                 pointnclick
     00000007  b_pointnclick_update               pointnclick
ASxxxx Linker V03.00 + NoICE + sdld,  page 7.
Hexadecimal  [32-Bits]

Area                                    Addr        Size        Decimal Bytes (Attributes)
--------------------------------        ----        ----        ------- ----- ------------
.  .ABS.                            00000000    00000000 =           0. bytes (ABS,CON)

      Value  Global                              Global Defined In Module
      -----  --------------------------------   ------------------------
     00000007  b_set_sgb_border                   sgb_border
     00000007  b_trigger_activate_at              trigger
     00000007  b_trigger_activate_at_intersecti   trigger
     00000007  b_trigger_at_intersection          trigger
     00000007  b_trigger_at_tile                  trigger
     00000007  b_trigger_interact                 trigger
     00000007  b_trigger_reset                    trigger
     00000007  b_vm_camera_move_to                vm_camera
     00000007  b_vm_camera_set_pos                vm_camera
     00000007  b_vm_load_palette                  vm_palette
     00000007  b_vm_sio_exchange                  vm_sio
     00000007  b_vm_sio_set_mode                  vm_sio
     00000007  l__HEADER2                      
     00000008  ___bank_VM_GBPRINTER               vm_gbprinter
     00000008  ___bank_VM_LOAD_SAVE               vm_load_save
     00000008  ___bank_VM_PROJECTILE              vm_projectiles
     00000008  ___bank_VM_RTC                     vm_rtc
     00000008  ___bank_VM_SCENE                   vm_scene
     00000008  ___bank_actor_19_interact          actor_19_interact
     00000008  ___bank_actor_1_interact           actor_1_interact
     00000008  ___bank_actor_22_update            actor_22_update
     00000008  ___bank_actor_26_update            actor_26_update
     00000008  ___bank_actor_27_update            actor_27_update
     00000008  ___bank_actor_28_update            actor_28_update
     00000008  ___bank_actor_29_update            actor_29_update
     00000008  ___bank_actor_30_interact          actor_30_interact
     00000008  ___bank_actor_31_update            actor_31_update
     00000008  ___bank_actor_32_interact          actor_32_interact
     00000008  ___bank_actor_34_update            actor_34_update
     00000008  ___bank_actor_35_update            actor_35_update
     00000008  ___bank_actor_38_update            actor_38_update
     00000008  ___bank_actor_39_update            actor_39_update
     00000008  ___bank_actor_40_update            actor_40_update
     00000008  ___bank_actor_41_interact          actor_41_interact
     00000008  ___bank_actor_43_update            actor_43_update
     00000008  ___bank_actor_44_update            actor_44_update
     00000008  ___bank_actor_45_update            actor_45_update
     00000008  ___bank_actor_46_interact          actor_46_interact
     00000008  ___bank_actor_47_update            actor_47_update
     00000008  ___bank_actor_48_update            actor_48_update
     00000008  ___bank_actor_49_interact          actor_49_interact
     00000008  ___bank_actor_55_interact          actor_55_interact
     00000008  ___bank_actor_sign_post_5_intera   actor_sign_post_5_interact
     00000008  ___bank_avatar_font_0              avatar_font_0
     00000008  ___bank_bg_logo_tilemap            bg_logo_tilemap
     00000008  ___bank_bg_logo_tilemap_attr       bg_logo_tilemap_attr
     00000008  ___bank_bg_menu_page1_tilemap      bg_menu_page1_tilemap
     00000008  ___bank_bg_menu_page2_tilemap      bg_menu_page2_tilemap
     00000008  ___bank_bg_room_tilemap            bg_room_tilemap
     00000008  ___bank_bg_room_tilemap_attr       bg_room_tilemap_attr
     00000008  ___bank_bg_titlescreen_tilemap     bg_titlescreen_tilemap
ASxxxx Linker V03.00 + NoICE + sdld,  page 8.
Hexadecimal  [32-Bits]

Area                                    Addr        Size        Decimal Bytes (Attributes)
--------------------------------        ----        ----        ------- ----- ------------
.  .ABS.                            00000000    00000000 =           0. bytes (ABS,CON)

      Value  Global                              Global Defined In Module
      -----  --------------------------------   ------------------------
     00000008  ___bank_bg_titlescreen_tilemap_a   bg_titlescreen_tilemap_attr
     00000008  ___bank_frame_image                frame_image
     00000008  ___bank_palette_0                  palette_0
     00000008  ___bank_palette_1                  palette_1
     00000008  ___bank_palette_2                  palette_2
     00000008  ___bank_palette_3                  palette_3
     00000008  ___bank_palette_4                  palette_4
     00000008  ___bank_palette_5                  palette_5
     00000008  ___bank_palette_6                  palette_6
     00000008  ___bank_palette_7                  palette_7
     00000008  ___bank_scene_9_init               scene_9_init
     00000008  ___bank_scene_logo_collisions      scene_logo_collisions
     00000008  ___bank_scene_logo_init            scene_logo_init
     00000008  ___bank_scene_menu_page_1_collis   scene_menu_page_1_collisions
     00000008  ___bank_scene_menu_page_1_init     scene_menu_page_1_init
     00000008  ___bank_scene_menu_page_2_actors   scene_menu_page_2_actors
     00000008  ___bank_scene_menu_page_2_collis   scene_menu_page_2_collisions
     00000008  ___bank_scene_menu_page_2_init     scene_menu_page_2_init
     00000008  ___bank_scene_parallax_example_i   scene_parallax_example_init
     00000008  ___bank_scene_player_s_house_col   scene_player_s_house_collisi
     00000008  ___bank_scene_player_s_house_tri   scene_player_s_house_trigger
     00000008  ___bank_scene_space_battle_init    scene_space_battle_init
     00000008  ___bank_scene_space_battle_p_hit   scene_space_battle_p_hit1
     00000008  ___bank_scene_title_screen_colli   scene_title_screen_collision
     00000008  ___bank_scene_title_screen_init    scene_title_screen_init
     00000008  ___bank_script_enemy_ship_moveme   script_enemy_ship_movement_
     00000008  ___bank_script_enemy_ship_moveme   script_enemy_ship_movement__
     00000008  ___bank_script_enemy_ship_moveme   script_enemy_ship_movement__
     00000008  ___bank_script_enemy_ship_moveme   script_enemy_ship_movement__
     00000008  ___bank_script_engine_init         
     00000008  ___bank_script_turnip_collisions   script_turnip_collisions
     00000008  ___bank_script_turnip_movement     script_turnip_movement
     00000008  ___bank_sprite_bullet_left_tiles   sprite_bullet_left_tileset
     00000008  ___bank_sprite_bullet_right_tile   sprite_bullet_right_tileset
     00000008  ___bank_sprite_checkbox_tileset    sprite_checkbox_tileset
     00000008  ___bank_sprite_cursor              sprite_cursor
     00000008  ___bank_sprite_cursor_tileset      sprite_cursor_tileset
     00000008  ___bank_sprite_drop_ui_tileset     sprite_drop_ui_tileset
     00000008  ___bank_sprite_enemy_ship          sprite_enemy_ship
     00000008  ___bank_sprite_enemy_ship_tilese   sprite_enemy_ship_tileset
     00000008  ___bank_sprite_foreground_temp_p   sprite_foreground_temp_powe
     00000008  ___bank_sprite_foreground_temp_p   sprite_foreground_temp_powe_
     00000008  ___bank_sprite_gbs_font            sprite_gbs_font
     00000008  ___bank_sprite_player              sprite_player
     00000008  ___bank_sprite_player_ship         sprite_player_ship
     00000008  ___bank_sprite_player_ship_tiles   sprite_player_ship_tileset
     00000008  ___bank_sprite_space_mine          sprite_space_mine
     00000008  ___bank_sprite_sprite_raindrop_t   sprite_sprite_raindrop_tiles
     00000008  ___bank_sprite_truck_temp          sprite_truck_temp
     00000008  ___bank_sprite_turnip              sprite_turnip
     00000008  ___bank_sprite_turnip_tileset      sprite_turnip_tileset
ASxxxx Linker V03.00 + NoICE + sdld,  page 9.
Hexadecimal  [32-Bits]

Area                                    Addr        Size        Decimal Bytes (Attributes)
--------------------------------        ----        ----        ------- ----- ------------
.  .ABS.                            00000000    00000000 =           0. bytes (ABS,CON)

      Value  Global                              Global Defined In Module
      -----  --------------------------------   ------------------------
     00000008  ___bank_trigger_19_interact        trigger_19_interact
     00000008  ___bank_trigger_22_interact        trigger_22_interact
     00000008  ___mute_mask_sound_legacy_0        sound_legacy_0
     00000008  b_CGBZeroPalette                   palette
     00000008  b_erase_flash                      
     00000008  b_events_init                      events
     00000008  b_itoa_fmt                         vm_ui_a
     00000008  b_music_events_poll                music_manager
     00000008  b_music_init_driver                music_manager
     00000008  b_music_init_events                music_manager
     00000008  b_palette_init                     palette
     00000008  b_restore_sram                     flasher
     00000008  b_restore_sram_bank                flasher
     00000008  b_save_sram                        flasher
     00000008  b_save_sram_banks                  
     00000008  b_timers_init                      events
     00000008  b_vm_print_detect                  vm_gbprinter
     00000008  b_vm_print_overlay                 vm_gbprinter
     00000008  b_vm_projectile_launch             vm_projectiles
     00000008  b_vm_projectile_load_type          vm_projectiles
     00000008  b_vm_rtc_get                       vm_rtc
     00000008  b_vm_rtc_latch                     vm_rtc
     00000008  b_vm_rtc_set                       vm_rtc
     00000008  b_vm_rtc_start                     vm_rtc
     00000008  b_vm_save_clear                    vm_load_save
     00000008  b_vm_save_peek                     vm_load_save
     00000008  b_vm_scene_pop                     vm_scene
     00000008  b_vm_scene_pop_all                 vm_scene
     00000008  b_vm_scene_push                    vm_scene
     00000008  b_vm_scene_stack_reset             vm_scene
     00000008  l__HEADER3                      
     00000009  ___bank_actor_0_interact           actor_0_interact
     00000009  ___bank_actor_0_update             actor_0_update
     00000009  ___bank_actor_10_interact          actor_10_interact
     00000009  ___bank_actor_10_update            actor_10_update
     00000009  ___bank_actor_11_interact          actor_11_interact
     00000009  ___bank_actor_11_update            actor_11_update
     00000009  ___bank_actor_12_interact          actor_12_interact
     00000009  ___bank_actor_12_update            actor_12_update
     00000009  ___bank_actor_13_interact          actor_13_interact
     00000009  ___bank_actor_13_update            actor_13_update
     00000009  ___bank_actor_14_interact          actor_14_interact
     00000009  ___bank_actor_14_update            actor_14_update
     00000009  ___bank_actor_15_interact          actor_15_interact
     00000009  ___bank_actor_15_update            actor_15_update
     00000009  ___bank_actor_16_interact          actor_16_interact
     00000009  ___bank_actor_16_update            actor_16_update
     00000009  ___bank_actor_17_interact          actor_17_interact
     00000009  ___bank_actor_17_update            actor_17_update
     00000009  ___bank_actor_21_update            actor_21_update
     00000009  ___bank_actor_23_update            actor_23_update
ASxxxx Linker V03.00 + NoICE + sdld,  page 10.
Hexadecimal  [32-Bits]

Area                                    Addr        Size        Decimal Bytes (Attributes)
--------------------------------        ----        ----        ------- ----- ------------
.  .ABS.                            00000000    00000000 =           0. bytes (ABS,CON)

      Value  Global                              Global Defined In Module
      -----  --------------------------------   ------------------------
     00000009  ___bank_actor_24_update            actor_24_update
     00000009  ___bank_actor_25_update            actor_25_update
     00000009  ___bank_actor_27_interact          actor_27_interact
     00000009  ___bank_actor_28_interact          actor_28_interact
     00000009  ___bank_actor_29_interact          actor_29_interact
     00000009  ___bank_actor_31_interact          actor_31_interact
     00000009  ___bank_actor_33_update            actor_33_update
     00000009  ___bank_actor_34_interact          actor_34_interact
     00000009  ___bank_actor_35_interact          actor_35_interact
     00000009  ___bank_actor_38_interact          actor_38_interact
     00000009  ___bank_actor_39_interact          actor_39_interact
     00000009  ___bank_actor_3_interact           actor_3_interact
     00000009  ___bank_actor_3_update             actor_3_update
     00000009  ___bank_actor_40_interact          actor_40_interact
     00000009  ___bank_actor_43_interact          actor_43_interact
     00000009  ___bank_actor_44_interact          actor_44_interact
     00000009  ___bank_actor_45_interact          actor_45_interact
     00000009  ___bank_actor_47_interact          actor_47_interact
     00000009  ___bank_actor_48_interact          actor_48_interact
     00000009  ___bank_actor_4_interact           actor_4_interact
     00000009  ___bank_actor_4_update             actor_4_update
     00000009  ___bank_actor_51_interact          actor_51_interact
     00000009  ___bank_actor_51_update            actor_51_update
     00000009  ___bank_actor_52_interact          actor_52_interact
     00000009  ___bank_actor_52_update            actor_52_update
     00000009  ___bank_actor_53_interact          actor_53_interact
     00000009  ___bank_actor_53_update            actor_53_update
     00000009  ___bank_actor_5_interact           actor_5_interact
     00000009  ___bank_actor_5_update             actor_5_update
     00000009  ___bank_actor_6_interact           actor_6_interact
     00000009  ___bank_actor_6_update             actor_6_update
     00000009  ___bank_actor_7_interact           actor_7_interact
     00000009  ___bank_actor_7_update             actor_7_update
     00000009  ___bank_actor_8_interact           actor_8_interact
     00000009  ___bank_actor_8_update             actor_8_update
     00000009  ___bank_actor_9_interact           actor_9_interact
     00000009  ___bank_actor_9_update             actor_9_update
     00000009  ___bank_bg_bg_level1_144px         bg_bg_level1_144px
     00000009  ___bank_bg_bg_level2               bg_bg_level2
     00000009  ___bank_bg_leaving_earth           bg_leaving_earth
     00000009  ___bank_bg_logo                    bg_logo
     00000009  ___bank_bg_menu_page1              bg_menu_page1
     00000009  ___bank_bg_menu_page2              bg_menu_page2
     00000009  ___bank_bg_room                    bg_room
     00000009  ___bank_bg_titlescreen             bg_titlescreen
     00000009  ___bank_bootstrap_script           
     00000009  ___bank_cursor_image               cursor_image
     00000009  ___bank_scene_9                    scene_9
     00000009  ___bank_scene_9_sprites            scene_9_sprites
     00000009  ___bank_scene_9_triggers           scene_9_triggers
     00000009  ___bank_scene_logo                 scene_logo
ASxxxx Linker V03.00 + NoICE + sdld,  page 11.
Hexadecimal  [32-Bits]

Area                                    Addr        Size        Decimal Bytes (Attributes)
--------------------------------        ----        ----        ------- ----- ------------
.  .ABS.                            00000000    00000000 =           0. bytes (ABS,CON)

      Value  Global                              Global Defined In Module
      -----  --------------------------------   ------------------------
     00000009  ___bank_scene_menu_page_1          scene_menu_page_1
     00000009  ___bank_scene_menu_page_1_sprite   scene_menu_page_1_sprites
     00000009  ___bank_scene_menu_page_2          scene_menu_page_2
     00000009  ___bank_scene_menu_page_2_sprite   scene_menu_page_2_sprites
     00000009  ___bank_scene_parallax_example     scene_parallax_example
     00000009  ___bank_scene_parallax_example_s   scene_parallax_example_sprit
     00000009  ___bank_scene_parallax_example_t   scene_parallax_example_trigg
     00000009  ___bank_scene_player_s_house       scene_player_s_house
     00000009  ___bank_scene_player_s_house_ini   scene_player_s_house_init
     00000009  ___bank_scene_space_battle         scene_space_battle
     00000009  ___bank_scene_space_battle_proje   scene_space_battle_projectil
     00000009  ___bank_scene_space_battle_sprit   scene_space_battle_sprites
     00000009  ___bank_scene_space_battle_trigg   scene_space_battle_triggers
     00000009  ___bank_scene_title_screen         scene_title_screen
     00000009  ___bank_script_12                  script_12
     00000009  ___bank_script_15                  script_15
     00000009  ___bank_script_enemy_ship_destro   script_enemy_ship_destroy
     00000009  ___bank_script_init_menu           script_init_menu
     00000009  ___bank_script_init_weapons        script_init_weapons
     00000009  ___bank_script_input_1             script_input_1
     00000009  ___bank_script_input_2             script_input_2
     00000009  ___bank_script_input_3             script_input_3
     00000009  ___bank_script_input_4             script_input_4
     00000009  ___bank_script_input_5             script_input_5
     00000009  ___bank_script_turnip_init         script_turnip_init
     00000009  ___bank_sound_legacy_0             sound_legacy_0
     00000009  ___bank_sprite_bullet_left         sprite_bullet_left
     00000009  ___bank_sprite_bullet_right        sprite_bullet_right
     00000009  ___bank_sprite_checkbox            sprite_checkbox
     00000009  ___bank_sprite_drop_ui             sprite_drop_ui
     00000009  ___bank_sprite_fly_temp            sprite_fly_temp
     00000009  ___bank_sprite_fly_temp_tileset    sprite_fly_temp_tileset
     00000009  ___bank_sprite_rock                sprite_rock
     00000009  ___bank_sprite_rock_tileset        sprite_rock_tileset
     00000009  ___bank_sprite_signpost            sprite_signpost
     00000009  ___bank_sprite_signpost_tileset    sprite_signpost_tileset
     00000009  ___bank_sprite_smoke_temp          sprite_smoke_temp
     00000009  ___bank_sprite_smoke_temp_tilese   sprite_smoke_temp_tileset
     00000009  ___bank_sprite_soot_baby_temp      sprite_soot_baby_temp
     00000009  ___bank_sprite_soot_baby_temp_ti   sprite_soot_baby_temp_tilese
     00000009  ___bank_sprite_sprite_raindrop     sprite_sprite_raindrop
     00000009  ___bank_sprite_ui_weapon           sprite_ui_weapon
     00000009  ___bank_sprite_ui_weapon_tileset   sprite_ui_weapon_tileset
     00000009  ___bank_spritesheet_none           spritesheet_none
     00000009  ___bank_trigger_0_interact         trigger_0_interact
     00000009  ___bank_trigger_1_interact         trigger_1_interact
     00000009  ___bank_trigger_20_interact        trigger_20_interact
     00000009  ___bank_trigger_21_interact        trigger_21_interact
     00000009  ___bank_trigger_23_interact        trigger_23_interact
     00000009  ___bank_trigger_24_interact        trigger_24_interact
     00000009  ___bank_trigger_25_interact        trigger_25_interact
ASxxxx Linker V03.00 + NoICE + sdld,  page 12.
Hexadecimal  [32-Bits]

Area                                    Addr        Size        Decimal Bytes (Attributes)
--------------------------------        ----        ----        ------- ----- ------------
.  .ABS.                            00000000    00000000 =           0. bytes (ABS,CON)

      Value  Global                              Global Defined In Module
      -----  --------------------------------   ------------------------
     00000009  ___bank_trigger_26_interact        trigger_26_interact
     00000009  ___bank_trigger_27_interact        trigger_27_interact
     00000009  ___bank_trigger_28_interact        trigger_28_interact
     00000009  ___bank_trigger_29_interact        trigger_29_interact
     00000009  ___bank_trigger_2_interact         trigger_2_interact
     00000009  ___bank_trigger_40_interact        trigger_40_interact
     00000009  b_SIO_init                         sio
     00000009  b_camera_init                      camera
     00000009  b_camera_reset                     camera
     00000009  b_input_init                       input
     00000009  b_logo_init                        logo
     00000009  b_logo_update                      logo
     00000009  b_parallax_init                    parallax
     00000009  b_remove_LCD_ISRs                  interrupts
     00000009  b_scroll_rect                      
     0000000C  __start_save                    
     00000011  l__EHL_TRAMPOLINE0              
     00000019  l__INITIALIZED                  
     00000019  l__INITIALIZER                  
     00000027  l__GSINIT                       
     00000030  l__HEADER6                      
     0000004E  l__HEADER4                      
     00000082  l__HEADER10                     
     000001CB  l__CRASH_SCRATCH2               
     00000200  s__CODE                         
     00000C51  l__CODE                         
     00000E51  s__HOME                         
     000011D2  l__CODE_9                       
     0000197F  l__DATA                         
     00002000  _rROMB0                            
     00002C81  l__HOME                         
     00003000  _rROMB1                            
     00003AD2  s__BASE                         
     00003AD2  s__CODE_0                       
     00003AD2  s__INITIALIZER                  
     00003AD2  s__LIT                          
     00003AEB  s__GSINIT                       
     00003B12  s__GSFINAL                      
     00003FFE  l__CODE_7                       
     00004000  _RTC_SELECT_REG                    vm_rtc
     00004000  _rRAMB                             
     00004000  l__CODE_1                       
     00004000  l__CODE_2                       
     00004000  l__CODE_3                       
     00004000  l__CODE_4                       
     00004000  l__CODE_5                       
     00004000  l__CODE_6                       
     00004000  l__CODE_8                       
     00006000  _RTC_LATCH_REG                     vm_rtc
     00008000  __VRAM                             
     00008000  __VRAM8000                         
ASxxxx Linker V03.00 + NoICE + sdld,  page 13.
Hexadecimal  [32-Bits]

Area                                    Addr        Size        Decimal Bytes (Attributes)
--------------------------------        ----        ----        ------- ----- ------------
.  .ABS.                            00000000    00000000 =           0. bytes (ABS,CON)

      Value  Global                              Global Defined In Module
      -----  --------------------------------   ------------------------
     00008800  __VRAM8800                         
     00009000  __VRAM9000                         
     00009800  __SCRN0                            
     00009C00  __SCRN1                            
     0000A000  _RTC_VALUE_REG                     vm_rtc
     0000A000  __SRAM                             
     0000C000  __RAM                              
     0000C000  _shadow_OAM                     
     0000C0A0  s__DATA                         
     0000D000  __RAMBANK                          
     0000DA1F  s__BSS                          
     0000DA1F  s__INITIALIZED                  
     0000DA38  s__HEAP                         
     0000DF00  .STACK                          
     0000DF00  _shadow_OAM2                       absolute
     0000DFA0  _BkgPalette                        absolute
     0000DFE0  _vwf_tile_data                     absolute
     0000FE00  __OAMRAM                           
     0000FF00  _P1_REG                            
     0000FF00  __IO                               
     0000FF01  _SB_REG                            
     0000FF02  _SC_REG                            
     0000FF04  _DIV_REG                           
     0000FF05  _TIMA_REG                          
     0000FF06  _TMA_REG                           
     0000FF07  _TAC_REG                           
     0000FF0F  _IF_REG                            
     0000FF10  _NR10_REG                          
     0000FF11  _NR11_REG                          
     0000FF12  _NR12_REG                          
     0000FF13  _NR13_REG                          
     0000FF14  _NR14_REG                          
     0000FF16  _NR21_REG                          
     0000FF17  _NR22_REG                          
     0000FF18  _NR23_REG                          
     0000FF19  _NR24_REG                          
     0000FF1A  _NR30_REG                          
     0000FF1B  _NR31_REG                          
     0000FF1C  _NR32_REG                          
     0000FF1D  _NR33_REG                          
     0000FF1E  _NR34_REG                          
     0000FF20  _NR41_REG                          
     0000FF21  _NR42_REG                          
     0000FF22  _NR43_REG                          
     0000FF23  _NR44_REG                          
     0000FF24  _NR50_REG                          
     0000FF25  _NR51_REG                          
     0000FF26  _NR52_REG                          
     0000FF30  _AUD3WAVE                          
     0000FF30  _PCM_SAMPLE                        
     0000FF30  __AUD3WAVERAM                      
ASxxxx Linker V03.00 + NoICE + sdld,  page 14.
Hexadecimal  [32-Bits]

Area                                    Addr        Size        Decimal Bytes (Attributes)
--------------------------------        ----        ----        ------- ----- ------------
.  .ABS.                            00000000    00000000 =           0. bytes (ABS,CON)

      Value  Global                              Global Defined In Module
      -----  --------------------------------   ------------------------
     0000FF40  _LCDC_REG                          
     0000FF41  _STAT_REG                          
     0000FF42  _SCY_REG                           
     0000FF43  _SCX_REG                           
     0000FF44  _LY_REG                            
     0000FF45  _LYC_REG                           
     0000FF46  _DMA_REG                           
     0000FF47  _BGP_REG                           
     0000FF48  _OBP0_REG                          
     0000FF49  _OBP1_REG                          
     0000FF4A  _WY_REG                            
     0000FF4B  _WX_REG                            
     0000FF4D  _KEY1_REG                          
     0000FF4F  _VBK_REG                           
     0000FF51  _HDMA1_REG                         
     0000FF52  _HDMA2_REG                         
     0000FF53  _HDMA3_REG                         
     0000FF54  _HDMA4_REG                         
     0000FF55  _HDMA5_REG                         
     0000FF56  _RP_REG                            
     0000FF68  _BCPS_REG                          
     0000FF69  _BCPD_REG                          
     0000FF6A  _OCPS_REG                          
     0000FF6B  _OCPD_REG                          
     0000FF70  _SVBK_REG                          
     0000FF76  _PCM12_REG                         
     0000FF77  _PCM34_REG                         
     0000FF80  .refresh_OAM                    
     0000FF80  __HRAM                             
     0000FFFF  _IE_REG                            
     00014000  s__CODE_1                       
     00024000  s__CODE_2                       
     00034000  s__CODE_3                       
     00044000  s__CODE_4                       
     00054000  s__CODE_5                       
     00064000  s__CODE_6                       
     00074000  s__CODE_7                       
     00084000  s__CODE_8                       
     00094000  s__CODE_9                       

ASxxxx Linker V03.00 + NoICE + sdld,  page 15.
Hexadecimal  [32-Bits]

Area                                    Addr        Size        Decimal Bytes (Attributes)
--------------------------------        ----        ----        ------- ----- ------------
_CODE                               00000200    00000C51 =        3153. bytes (REL,CON)

      Value  Global                              Global Defined In Module
      -----  --------------------------------   ------------------------
     00000200  ___HandleCrash                     
     0000020A  _SIO_send_byte                     
     0000021D  _SIO_receive                       
     0000022E  _SetTile                           
     0000023D  _set_win_tile_xy                   
     00000242  _set_bkg_tile_xy                   
     00000265  _GetWinAddr                        
     0000026D  _GetBkgAddr                        
     0000027B  _state_init                        
     00000280  _state_update                      
     000002A2  _ui_time_masks                     
     000002AA  _ui_print_shift_char               
     0000032D  _ui_draw_frame_row                 
     00000336  .ui_draw_frame_row                 
     0000035F  _script_cmds                       vm_instructions
     00000593  _save_signature                    game_signature
     00000597  _start_scene_x                     
     00000599  _start_scene_y                     
     0000059B  _start_scene_dir                   
     0000059C  _start_scene                       
     0000059F  _start_player_move_speed           
     000005A0  _start_player_anim_tick            
     000005A1  _ui_fonts                          
     000005A7  _core_reset_hook                   main
     000005AF  _main                              main
     000005B7  _state_start_fns                   
     000005C9  _state_update_fns                  
     000005DB  _hUGE_init_banked                  hUGEDriver_obj
     000005DF  _hUGE_init                         hUGEDriver_obj
     000005EA  _hUGE_mute_channel_banked          hUGEDriver_obj
     000005EE  _hUGE_mute_channel                 hUGEDriver_obj
     000005FB  _hUGE_set_position_banked          hUGEDriver_obj
     000005FF  _hUGE_set_position                 hUGEDriver_obj
     00000608  hUGE_init                          hUGEDriver_obj
     0000065E  hUGE_mute_channel                  hUGEDriver_obj
     00000854  hUGE_set_position                  hUGEDriver_obj
     000009BC  _hUGE_dosound                      hUGEDriver_obj
     000009BC  _hUGE_dosound_banked               hUGEDriver_obj
     000009BC  hUGE_dosound                       hUGEDriver_obj
     00000CAB  _get_vram_byte                     
     00000CB8  _get_win_tile_xy                   
     00000CC0  _get_bkg_tile_xy                   
     00000CE7  _set_sprite_palette                CGB
     00000CEC  _set_bkg_palette                   CGB
     00000CEF  .set_palette                       CGB
     00000D0E  _set_sprite_palette_entry          CGB
     00000D13  _set_bkg_palette_entry             CGB
     00000D16  .set_palette_entry                 CGB
     00000D32  _hide_sprites_range                Metasprites
     00000D62  .sgb_check                         
ASxxxx Linker V03.00 + NoICE + sdld,  page 16.
Hexadecimal  [32-Bits]

Area                                    Addr        Size        Decimal Bytes (Attributes)
--------------------------------        ----        ----        ------- ----- ------------
_CODE                               00000200    00000C51 =        3153. bytes (REL,CON)

      Value  Global                              Global Defined In Module
      -----  --------------------------------   ------------------------
     00000D62  _sgb_check                         
     00000DAA  _sgb_transfer                      
     00000DAF  .sgb_transfer                      
     00000DF0  ___move_metasprite                 Metasprites
     00000E2F  _cpu_slow                          CGB
     00000E4A  _cpu_fast                          CGB

ASxxxx Linker V03.00 + NoICE + sdld,  page 17.
Hexadecimal  [32-Bits]

Area                                    Addr        Size        Decimal Bytes (Attributes)
--------------------------------        ----        ----        ------- ----- ------------
_HEADER0                            00000000    00000001 =           1. bytes (ABS,CON)

      Value  Global                              Global Defined In Module
      -----  --------------------------------   ------------------------
     00000020  .call_hl                           Runtime

ASxxxx Linker V03.00 + NoICE + sdld,  page 18.
Hexadecimal  [32-Bits]

Area                                    Addr        Size        Decimal Bytes (Attributes)
--------------------------------        ----        ----        ------- ----- ------------
_HEADER1                            00000000    00000005 =           5. bytes (ABS,CON)

      Value  Global                              Global Defined In Module
      -----  --------------------------------   ------------------------
     00000028  .MemsetSmall                       Runtime

ASxxxx Linker V03.00 + NoICE + sdld,  page 19.
Hexadecimal  [32-Bits]

Area                                    Addr        Size        Decimal Bytes (Attributes)
--------------------------------        ----        ----        ------- ----- ------------
_HEADER2                            00000000    00000007 =           7. bytes (ABS,CON)

      Value  Global                              Global Defined In Module
      -----  --------------------------------   ------------------------
     00000030  .MemcpySmall                       Runtime

ASxxxx Linker V03.00 + NoICE + sdld,  page 20.
Hexadecimal  [32-Bits]

Area                                    Addr        Size        Decimal Bytes (Attributes)
--------------------------------        ----        ----        ------- ----- ------------
_HEADER3                            00000000    00000008 =           8. bytes (ABS,CON)

      Value  Global                              Global Defined In Module
      -----  --------------------------------   ------------------------
ASxxxx Linker V03.00 + NoICE + sdld,  page 21.
Hexadecimal  [32-Bits]

Area                                    Addr        Size        Decimal Bytes (Attributes)
--------------------------------        ----        ----        ------- ----- ------------
_HEADER4                            00000000    0000004E =          78. bytes (ABS,CON)

      Value  Global                              Global Defined In Module
      -----  --------------------------------   ------------------------
     00000080  .int                               Runtime
     0000008F  _wait_int_handler                  Runtime
     0000009C  __standard_VBL_handler             Runtime
     000000AC  _refresh_OAM                       Runtime

ASxxxx Linker V03.00 + NoICE + sdld,  page 22.
Hexadecimal  [32-Bits]

Area                                    Addr        Size        Decimal Bytes (Attributes)
--------------------------------        ----        ----        ------- ----- ------------
_HEADER5                            00000000    00000002 =           2. bytes (ABS,CON)

      Value  Global                              Global Defined In Module
      -----  --------------------------------   ------------------------
ASxxxx Linker V03.00 + NoICE + sdld,  page 23.
Hexadecimal  [32-Bits]

Area                                    Addr        Size        Decimal Bytes (Attributes)
--------------------------------        ----        ----        ------- ----- ------------
_HEADER6                            00000000    00000030 =          48. bytes (ABS,CON)

      Value  Global                              Global Defined In Module
      -----  --------------------------------   ------------------------
ASxxxx Linker V03.00 + NoICE + sdld,  page 24.
Hexadecimal  [32-Bits]

Area                                    Addr        Size        Decimal Bytes (Attributes)
--------------------------------        ----        ----        ------- ----- ------------
_HEADER7                            00000000    00000006 =           6. bytes (ABS,CON)

      Value  Global                              Global Defined In Module
      -----  --------------------------------   ------------------------
ASxxxx Linker V03.00 + NoICE + sdld,  page 25.
Hexadecimal  [32-Bits]

Area                                    Addr        Size        Decimal Bytes (Attributes)
--------------------------------        ----        ----        ------- ----- ------------
_HEADER8                            00000000    00000003 =           3. bytes (ABS,CON)

      Value  Global                              Global Defined In Module
      -----  --------------------------------   ------------------------
ASxxxx Linker V03.00 + NoICE + sdld,  page 26.
Hexadecimal  [32-Bits]

Area                                    Addr        Size        Decimal Bytes (Attributes)
--------------------------------        ----        ----        ------- ----- ------------
_HEADER9                            00000000    00000001 =           1. bytes (ABS,CON)

      Value  Global                              Global Defined In Module
      -----  --------------------------------   ------------------------
ASxxxx Linker V03.00 + NoICE + sdld,  page 27.
Hexadecimal  [32-Bits]

Area                                    Addr        Size        Decimal Bytes (Attributes)
--------------------------------        ----        ----        ------- ----- ------------
_HEADERa                            00000000    00000001 =           1. bytes (ABS,CON)

      Value  Global                              Global Defined In Module
      -----  --------------------------------   ------------------------
ASxxxx Linker V03.00 + NoICE + sdld,  page 28.
Hexadecimal  [32-Bits]

Area                                    Addr        Size        Decimal Bytes (Attributes)
--------------------------------        ----        ----        ------- ----- ------------
_HEADERb                            00000000    00000001 =           1. bytes (ABS,CON)

      Value  Global                              Global Defined In Module
      -----  --------------------------------   ------------------------
ASxxxx Linker V03.00 + NoICE + sdld,  page 29.
Hexadecimal  [32-Bits]

Area                                    Addr        Size        Decimal Bytes (Attributes)
--------------------------------        ----        ----        ------- ----- ------------
_HEADERc                            00000000    00000002 =           2. bytes (ABS,CON)

      Value  Global                              Global Defined In Module
      -----  --------------------------------   ------------------------
ASxxxx Linker V03.00 + NoICE + sdld,  page 30.
Hexadecimal  [32-Bits]

Area                                    Addr        Size        Decimal Bytes (Attributes)
--------------------------------        ----        ----        ------- ----- ------------
_HEADERd                            00000000    00000001 =           1. bytes (ABS,CON)

      Value  Global                              Global Defined In Module
      -----  --------------------------------   ------------------------
ASxxxx Linker V03.00 + NoICE + sdld,  page 31.
Hexadecimal  [32-Bits]

Area                                    Addr        Size        Decimal Bytes (Attributes)
--------------------------------        ----        ----        ------- ----- ------------
_HEADERe                            00000000    00000001 =           1. bytes (ABS,CON)

      Value  Global                              Global Defined In Module
      -----  --------------------------------   ------------------------
ASxxxx Linker V03.00 + NoICE + sdld,  page 32.
Hexadecimal  [32-Bits]

Area                                    Addr        Size        Decimal Bytes (Attributes)
--------------------------------        ----        ----        ------- ----- ------------
_HEADERf                            00000000    00000002 =           2. bytes (ABS,CON)

      Value  Global                              Global Defined In Module
      -----  --------------------------------   ------------------------
ASxxxx Linker V03.00 + NoICE + sdld,  page 33.
Hexadecimal  [32-Bits]

Area                                    Addr        Size        Decimal Bytes (Attributes)
--------------------------------        ----        ----        ------- ----- ------------
_HEADER10                           00000000    00000082 =         130. bytes (ABS,CON)

      Value  Global                              Global Defined In Module
      -----  --------------------------------   ------------------------
     00000150  .reset                             Runtime
     00000150  _reset                             Runtime
     00000157  .code_start                        Runtime
     000001B7  _exit                              Runtime
     000001BB  _set_interrupts                    Runtime

ASxxxx Linker V03.00 + NoICE + sdld,  page 34.
Hexadecimal  [32-Bits]

Area                                    Addr        Size        Decimal Bytes (Attributes)
--------------------------------        ----        ----        ------- ----- ------------
_HEADER11                           00000000    00000001 =           1. bytes (ABS,CON)

      Value  Global                              Global Defined In Module
      -----  --------------------------------   ------------------------
ASxxxx Linker V03.00 + NoICE + sdld,  page 35.
Hexadecimal  [32-Bits]

Area                                    Addr        Size        Decimal Bytes (Attributes)
--------------------------------        ----        ----        ------- ----- ------------
_HOME                               00000E51    00002C81 =       11393. bytes (REL,CON)

      Value  Global                              Global Defined In Module
      -----  --------------------------------   ------------------------
     00000E51  .memset_simple                     Runtime
     00000E5A  .memcpy_simple                     Runtime
     00000E77  .remove_VBL                        Runtime
     00000E7A  .remove_int                        Runtime
     00000E97  .add_VBL                           Runtime
     00000E9A  .add_int                           Runtime
     00000EA5  .wait_vbl_done                     Runtime
     00000EA5  _wait_vbl_done                     Runtime
     00000EB5  .display_off                       Runtime
     00000EB5  _display_off                       Runtime
     00000ECD  _remove_VBL                        Runtime
     00000ED8  _add_VBL                           Runtime
     00000EE3  _actors_update                     actor
     000012EC  _SetBankedBkgData                  bankdata
     00001308  _SetBankedSpriteData               bankdata
     00001324  _SetBankedBkgTiles                 bankdata
     00001340  _SetBankedWinTiles                 bankdata
     0000135C  _ReadBankedFarPtr                  bankdata
     00001383  _ReadBankedUWORD                   bankdata
     0000139F  _MemcpyBanked                      bankdata
     000013BB  _MemcpyVRAMBanked                  bankdata
     000013D7  _IndexOfFarPtr                     bankdata
     0000146D  _camera_update                     camera
     000015A0  _load_animations                   data_manager
     000015FF  _events_update                     events
     000016D1  _timers_update                     events
     00001759  _input_update                      input
     00001789  .sio_ISR                           
     000017E3  .timer_ISR                         
     000017F8  _simple_LCD_isr                    interrupts
     00001874  _fullscreen_LCD_isr                interrupts
     000018A0  _VBL_isr                           interrupts
     000018EA  _isqrt                             math
     00001940  _sine_wave                         math
     00001A40  _dir_lookup                        math
     00001A48  _dir_angle_lookup                  math
     00001A4C  _hUGETrackerRoutine                music_manager
     00001A78  _music_events_update               music_manager
     00001AFA  _music_play_isr                    music_manager
     00001BA0  _parallax_LCD_isr                  parallax
     00001BDD  _projectiles_update                projectiles
     0000207C  _projectiles_render                projectiles
     000021EF  _scroll_load_pending_row           scroll
     0000227B  _scroll_load_row                   scroll
     000022F5  _scroll_load_col                   scroll
     00002360  _scroll_load_pending_col           scroll
     000023F1  _set_bkg_submap                    
     00002434  _set_xy_win_submap                 
     00002461  .set_xy_win_submap                 
     0000246A  .set_xy_bkg_submap                 
ASxxxx Linker V03.00 + NoICE + sdld,  page 36.
Hexadecimal  [32-Bits]

Area                                    Addr        Size        Decimal Bytes (Attributes)
--------------------------------        ----        ----        ------- ----- ------------
_HOME                               00000E51    00002C81 =       11393. bytes (REL,CON)

      Value  Global                              Global Defined In Module
      -----  --------------------------------   ------------------------
     00002479  .set_xy_submap                     
     000024BF  _sfx_play_isr                      sfx_player
     00002592  _on_SIO_receive                    sio
     000025D3  _SIO_update                        sio
     0000263A  _ui_update                         ui
     00002769  _vm_sgb_transfer                   vm_sgb
     000027B7  _vm_load_text                      vm_ui
     00002A0C  _vm_switch                         vm
     00002B0F  _vm_beginthread                    vm
     00002C34  _vm_rpn                            vm
     00003376  _vm_get_far                        vm
     000033E0  _vm_call_native                    vm
     000033F3  _VM_STEP                           vm
     00003461  _script_runner_update              vm
     000035CC  _fill_win_rect                     
     000035DE  _rand                              
     000035DE  _randw                             
     00003609  _initrand                          
     0000360B  .initrand                          
     00003614  _get_bkg_data                      
     00003614  _get_win_data                      
     00003661  _get_sprite_data                   
     00003691  __mulsuchar                        mul
     0000369B  __muluschar                        mul
     000036A5  __mulschar                         mul
     000036B7  __muluchar                         mul
     000036C3  __mulint                           mul
     000036E9  _abs                               abs
     000036F8  _set_win_tiles                     
     0000370C  _set_tile_data                     
     00003711  _set_bkg_data                      
     00003711  _set_win_data                      
     00003719  _set_sprite_data                   
     00003749  _reverse                           reverse
     0000377D  ___call__banked                    far_ptr
     0000379A  _to_far_ptr                        far_ptr
     000037D3  _add_LCD                           
     000037DE  .add_LCD                           
     000037E4  _remove_LCD                        
     000037EF  .remove_LCD                        
     000037F5  .fill_rect_wtt                     
     000037FE  .fill_rect_btt                     
     0000384B  .copy_vram                         
     0000385F  _get_data                          
     0000385F  _set_data                          
     0000385F  _vmemcpy                           
     00003872  _fill_bkg_rect                     
     00003884  .padup                             
     00003884  _waitpadup                         
     00003894  .jpad                              
     00003894  _joypad                            
ASxxxx Linker V03.00 + NoICE + sdld,  page 37.
Hexadecimal  [32-Bits]

Area                                    Addr        Size        Decimal Bytes (Attributes)
--------------------------------        ----        ----        ------- ----- ------------
_HOME                               00000E51    00002C81 =       11393. bytes (REL,CON)

      Value  Global                              Global Defined In Module
      -----  --------------------------------   ------------------------
     000038BC  _waitpad                           
     000038BF  .wait_pad                          
     000038C6  ___sdcc_call_hl                    call_hl
     000038C7  ___memcpy                          memcpy
     000038C7  _memcpy                            memcpy
     0000390A  _memset                            memset
     0000393D  .set_xy_wtt                        SetTileMap
     00003946  .set_xy_btt                        SetTileMap
     00003955  .set_xy_tt                         SetTileMap
     00003997  __divsuchar                        div
     000039A4  __modsuchar                        div
     000039AE  __divuschar                        div
     000039C0  __moduschar                        div
     000039D0  __divschar                         div
     000039DC  __modschar                         div
     000039E6  __divsint                          div
     000039F7  __modsint                          div
     00003A06  __divuchar                         div
     00003A12  __moduchar                         div
     00003A1C  __divuint                          div
     00003A2D  __moduint                          div
     00003A3C  .div8                              div
     00003A3C  .mod8                              div
     00003A44  .div16                             div
     00003A44  .mod16                             div
     00003A7A  .divu8                             div
     00003A7A  .modu8                             div
     00003A7D  .divu16                            div
     00003A7D  .modu16                            div
     00003ABE  _set_bkg_tiles                     

ASxxxx Linker V03.00 + NoICE + sdld,  page 38.
Hexadecimal  [32-Bits]

Area                                    Addr        Size        Decimal Bytes (Attributes)
--------------------------------        ----        ----        ------- ----- ------------
_INITIALIZER                        00003AD2    00000019 =          25. bytes (REL,CON)

      Value  Global                              Global Defined In Module
      -----  --------------------------------   ------------------------
ASxxxx Linker V03.00 + NoICE + sdld,  page 39.
Hexadecimal  [32-Bits]

Area                                    Addr        Size        Decimal Bytes (Attributes)
--------------------------------        ----        ----        ------- ----- ------------
_GSINIT                             00003AEB    00000027 =          39. bytes (REL,CON)

      Value  Global                              Global Defined In Module
      -----  --------------------------------   ------------------------
     00003AEB  gsinit                             Runtime

ASxxxx Linker V03.00 + NoICE + sdld,  page 40.
Hexadecimal  [32-Bits]

Area                                    Addr        Size        Decimal Bytes (Attributes)
--------------------------------        ----        ----        ------- ----- ------------
_GSFINAL                            00003B12    00000001 =           1. bytes (REL,CON)

      Value  Global                              Global Defined In Module
      -----  --------------------------------   ------------------------
ASxxxx Linker V03.00 + NoICE + sdld,  page 41.
Hexadecimal  [32-Bits]

Area                                    Addr        Size        Decimal Bytes (Attributes)
--------------------------------        ----        ----        ------- ----- ------------
_DATA                               0000C0A0    0000197F =        6527. bytes (REL,CON)

      Value  Global                              Global Defined In Module
      -----  --------------------------------   ------------------------
     0000C0A0  __cpu                              Runtime
     0000C0A1  __is_GBA                           Runtime
     0000C0A2  .mode                              Runtime
     0000C0A3  .sys_time                          Runtime
     0000C0A3  _sys_time                          Runtime
     0000C0A5  .int_0x40                          Runtime
     0000C0B9  _actors                            actor
     0000C4FD  _actors_active_head                actor
     0000C4FF  _actors_active_tail                actor
     0000C501  _actors_inactive_head              actor
     0000C503  _screen_x                          actor
     0000C504  _screen_y                          actor
     0000C505  _invalid                           actor
     0000C507  _player_moving                     actor
     0000C508  _player_iframes                    actor
     0000C509  _player_collision_actor            actor
     0000C50B  _emote_actor                       actor
     0000C50D  _emote_timer                       actor
     0000C50E  _allocated_hardware_sprites        actor
     0000C51A  _camera_x                          camera
     0000C51C  _camera_y                          camera
     0000C51E  _camera_offset_x                   camera
     0000C51F  _camera_offset_y                   camera
     0000C520  _camera_deadzone_x                 camera
     0000C521  _camera_deadzone_y                 camera
     0000C522  _camera_settings                   camera
     0000C526  _current_scene                     data_manager
     0000C529  _image_bank                        data_manager
     0000C52A  _image_ptr                         data_manager
     0000C52C  _image_attr_bank                   data_manager
     0000C52D  _image_attr_ptr                    data_manager
     0000C52F  _collision_bank                    data_manager
     0000C530  _collision_ptr                     data_manager
     0000C532  _image_tile_width                  data_manager
     0000C533  _image_tile_height                 data_manager
     0000C534  _image_width                       data_manager
     0000C536  _image_height                      data_manager
     0000C538  _sprites_len                       data_manager
     0000C539  _actors_len                        data_manager
     0000C53A  _projectiles_len                   data_manager
     0000C53B  _player_sprite_len                 data_manager
     0000C53C  _scene_type                        data_manager
     0000C53D  _scene_LCD_type                    data_manager
     0000C53E  _scene_stack                       data_manager
     0000C57E  _scene_stack_ptr                   data_manager
     0000C580  _scene_sprites_base_tiles          data_manager
     0000C5C0  _input_events                      events
     0000C5E8  _input_slots                       events
     0000C5F0  _timer_events                      events
     0000C604  _timer_values                      events
ASxxxx Linker V03.00 + NoICE + sdld,  page 42.
Hexadecimal  [32-Bits]

Area                                    Addr        Size        Decimal Bytes (Attributes)
--------------------------------        ----        ----        ------- ----- ------------
_DATA                               0000C0A0    0000197F =        6527. bytes (REL,CON)

      Value  Global                              Global Defined In Module
      -----  --------------------------------   ------------------------
     0000C60C  _fade_running                      fade_manager
     0000C60D  _fade_frames_per_step              fade_manager
     0000C60E  _fade_timer                        fade_manager
     0000C616  _joypads                           input
     0000C61B  _frame_joy                         input
     0000C61C  _last_joy                          input
     0000C61D  _recent_joy                        input
     0000C61E  _SIO_status                        
     0000C61F  _link_byte_sent                    
     0000C620  _link_next_mode                    
     0000C621  _save_blob_size                    load_save
     0000C623  _routine_queue                     music_manager
     0000C627  _routine_queue_head                music_manager
     0000C628  _routine_queue_tail                music_manager
     0000C629  _music_events                      music_manager
     0000C63D  _music_current_track_bank          music_manager
     0000C63E  _music_mute_flag                   music_manager
     0000C63F  _music_mute_mask                   music_manager
     0000C640  _music_next_track                  music_manager
     0000C642  _music_current_track               music_manager
     0000C644  _music_play_isr_counter            music_manager
     0000C645  _music_play_isr_pause              music_manager
     0000C646  _music_global_mute_mask            music_manager
     0000C647  _music_sfx_priority                music_manager
     0000C648  _DMG_palette                       palette
     0000C64B  _SprPalette                        palette
     0000C68B  _parallax_rows                     parallax
     0000C69D  _parallax_row                      parallax
     0000C69F  _projectiles                       projectiles
     0000C758  _projectile_defs                   projectiles
     0000C7CB  _projectiles_active_head           projectiles
     0000C7CD  _projectiles_inactive_head         projectiles
     0000C7D4  _scroll_x                          scroll
     0000C7D6  _scroll_y                          scroll
     0000C7D8  _draw_scroll_x                     scroll
     0000C7DA  _draw_scroll_y                     scroll
     0000C7DC  _scroll_x_max                      scroll
     0000C7DE  _scroll_y_max                      scroll
     0000C7E0  _scroll_offset_x                   scroll
     0000C7E1  _scroll_offset_y                   scroll
     0000C7E2  _pending_h_x                       scroll
     0000C7E3  _pending_h_y                       scroll
     0000C7E4  _pending_h_i                       scroll
     0000C7E5  _pending_w_x                       scroll
     0000C7E6  _pending_w_y                       scroll
     0000C7E7  _pending_w_i                       scroll
     0000C7E8  _current_row                       scroll
     0000C7EA  _new_row                           scroll
     0000C7EC  _current_col                       scroll
     0000C7EE  _new_col                           scroll
     0000C7F0  .image_tile_width                  
ASxxxx Linker V03.00 + NoICE + sdld,  page 43.
Hexadecimal  [32-Bits]

Area                                    Addr        Size        Decimal Bytes (Attributes)
--------------------------------        ----        ----        ------- ----- ------------
_DATA                               0000C0A0    0000197F =        6527. bytes (REL,CON)

      Value  Global                              Global Defined In Module
      -----  --------------------------------   ------------------------
     0000C7F1  _sfx_play_bank                     sfx_player
     0000C7F2  _sfx_play_sample                   sfx_player
     0000C7F4  _sfx_frame_skip                    sfx_player
     0000C7F5  _link_operation_mode               sio
     0000C7F6  _link_packet                       sio
     0000C816  _link_packet_len                   sio
     0000C817  _link_packet_ptr                   sio
     0000C819  _link_packet_received              sio
     0000C81A  _link_packet_snd_len               sio
     0000C81B  _link_packet_snd_ptr               sio
     0000C81D  _link_packet_sent                  sio
     0000C81E  __is_CGB                           system
     0000C81F  __is_SGB                           system
     0000C820  __current_ram_bank                 system
     0000C821  _triggers                          trigger
     0000C919  _last_trigger_tx                   trigger
     0000C91A  _last_trigger_ty                   trigger
     0000C91B  _last_trigger                      trigger
     0000C91C  _win_pos_x                         ui
     0000C91D  _win_dest_pos_x                    ui
     0000C91E  _win_pos_y                         ui
     0000C91F  _win_dest_pos_y                    ui
     0000C920  _win_speed                         ui
     0000C921  _text_drawn                        ui
     0000C922  _current_text_speed                ui
     0000C923  _text_wait                         ui
     0000C924  _text_options                      ui
     0000C925  _text_in_speed                     ui
     0000C926  _text_out_speed                    ui
     0000C927  _text_draw_speed                   ui
     0000C928  _text_ff_joypad                    ui
     0000C929  _text_ff                           ui
     0000C92A  _text_bkg_fill                     ui
     0000C92B  _ui_text_data                      ui
     0000CA35  _vwf_current_mask                  ui
     0000CA36  _vwf_current_rotate                ui
     0000CA37  _vwf_inverse_map                   ui
     0000CA38  _vwf_direction                     ui
     0000CA39  _vwf_current_font_desc             ui
     0000CA41  _vwf_current_font_bank             ui
     0000CA42  _vwf_current_font_idx              ui
     0000CA43  _text_render_base_addr             ui
     0000CA45  _text_scroll_addr                  ui
     0000CA47  _text_scroll_width                 ui
     0000CA48  _text_scroll_height                ui
     0000CA49  _text_scroll_fill                  ui
     0000CA4A  _text_sound_mask                   ui
     0000CA4B  _text_sound_bank                   ui
     0000CA4C  _text_sound_data                   ui
     0000CA4E  _overlay_priority                  ui
     0000CA55  __itoa_fmt_len                     vm_ui_a
ASxxxx Linker V03.00 + NoICE + sdld,  page 44.
Hexadecimal  [32-Bits]

Area                                    Addr        Size        Decimal Bytes (Attributes)
--------------------------------        ----        ----        ------- ----- ------------
_DATA                               0000C0A0    0000197F =        6527. bytes (REL,CON)

      Value  Global                              Global Defined In Module
      -----  --------------------------------   ------------------------
     0000CA56  .itoa_fmt_buf                      vm_ui_a
     0000CA59  _CTXS                              vm
     0000CB89  _first_ctx                         vm
     0000CB8B  _free_ctxs                         vm
     0000CB8D  _old_executing_ctx                 vm
     0000CB8F  _executing_ctx                     vm
     0000CB91  _vm_lock_state                     vm
     0000CB92  _vm_loaded_state                   vm
     0000CB93  _vm_exception_code                 vm
     0000CB94  _vm_exception_params_length        vm
     0000CB95  _vm_exception_params_bank          vm
     0000CB96  _vm_exception_params_offset        vm
     0000CB99  _script_memory                     vm
     0000D99F  _grounded                          platform
     0000D9A0  _on_ladder                         platform
     0000D9A1  _pl_vel_x                          platform
     0000D9A3  _pl_vel_y                          platform
     0000D9A5  _plat_min_vel                      platform
     0000D9A7  _plat_walk_vel                     platform
     0000D9A9  _plat_climb_vel                    platform
     0000D9AB  _plat_run_vel                      platform
     0000D9AD  _plat_walk_acc                     platform
     0000D9AF  _plat_run_acc                      platform
     0000D9B1  _plat_dec                          platform
     0000D9B3  _plat_jump_vel                     platform
     0000D9B5  _plat_grav                         platform
     0000D9B7  _plat_hold_grav                    platform
     0000D9B9  _plat_max_fall_vel                 platform
     0000D9BB  _shooter_reached_end               shmup
     0000D9BC  _shooter_dest                      shmup
     0000D9BE  _shooter_direction                 shmup
     0000D9BF  _topdown_grid                      topdown
     0000D9C0  ___rand_seed                       
     0000D9DE  _hUGE_current_wave                 hUGEDriver_obj
     0000D9DE  hUGE_current_wave                  hUGEDriver_obj
     0000D9DF  _hUGE_mute_mask                    hUGEDriver_obj
     0000DA08  ___call_banked_addr                far_ptr
     0000DA08  ___call_banked_ptr                 far_ptr
     0000DA0A  ___call_banked_bank                far_ptr
     0000DA0C  .int_0x48                          
     0000DA1C  ___current_metasprite              Metasprites
     0000DA1E  ___current_base_tile               Metasprites

ASxxxx Linker V03.00 + NoICE + sdld,  page 45.
Hexadecimal  [32-Bits]

Area                                    Addr        Size        Decimal Bytes (Attributes)
--------------------------------        ----        ----        ------- ----- ------------
_INITIALIZED                        0000DA1F    00000019 =          25. bytes (REL,CON)

      Value  Global                              Global Defined In Module
      -----  --------------------------------   ------------------------
     0000DA1F  _fade_style                        fade_manager
     0000DA20  _game_time                         game_time
     0000DA21  _PRN_PKT_START                     gbprinter
     0000DA2F  _hide_sprites                      interrupts
     0000DA30  _show_actors_on_overlay            interrupts
     0000DA31  _overlay_cut_scanline              interrupts
     0000DA32  _triggers_len                      trigger
     0000DA33  _exchange_state                    vm_sio
     0000DA34  _last_hit_trigger                  pointnclick
     0000DA35  _shooter_scroll_speed              shmup
     0000DA36  ___render_shadow_OAM               Metasprites
     0000DA37  __map_tile_offset                  SetTileMap
ASxxxx Linker V03.00 + NoICE + sdld,  page 46.
Hexadecimal  [32-Bits]

Area                                    Addr        Size        Decimal Bytes (Attributes)
--------------------------------        ----        ----        ------- ----- ------------
_HRAM12                             00000000    00000003 =           3. bytes (ABS,CON)

      Value  Global                              Global Defined In Module
      -----  --------------------------------   ------------------------
     0000FF90  __current_bank                     Runtime
     0000FF92  __shadow_OAM_base                  Runtime

ASxxxx Linker V03.00 + NoICE + sdld,  page 47.
Hexadecimal  [32-Bits]

Area                                    Addr        Size        Decimal Bytes (Attributes)
--------------------------------        ----        ----        ------- ----- ------------
_EHL_TRAMPOLINE0                    00000000    00000011 =          17. bytes (ABS,CON)

      Value  Global                              Global Defined In Module
      -----  --------------------------------   ------------------------
     00000008  ___sdcc_bcall_ehl                  

ASxxxx Linker V03.00 + NoICE + sdld,  page 48.
Hexadecimal  [32-Bits]

Area                                    Addr        Size        Decimal Bytes (Attributes)
--------------------------------        ----        ----        ------- ----- ------------
_CODE_1                             00014000    00004000 =       16384. bytes (REL,CON)

      Value  Global                              Global Defined In Module
      -----  --------------------------------   ------------------------
     00014000  ___func_ACTOR                      actor
     00014000  _actors_init                       actor
     0001403A  _emote_offsets                     actor
     00014049  _emote_metasprite                  actor
     00014055  _player_init                       actor
     0001406A  _deactivate_actor                  actor
     000141DB  _activate_actor                    actor
     0001431A  _activate_actors_in_row            actor
     00014411  _activate_actors_in_col            actor
     00014562  _actor_set_frames                  actor
     000145B6  _actor_set_frame_offset            actor
     000145F3  _actor_get_frame_offset            actor
     00014606  _actor_set_anim_idle               actor
     00014634  _actor_set_anim_moving             actor
     00014665  _actor_set_dir                     actor
     000146CA  _actor_at_tile                     actor
     000147A0  _actor_in_front_of_player          actor
     00014887  _actor_overlapping_player          actor
     00014B20  _actor_overlapping_bb              actor
     00014D3F  _actors_handle_player_collision    actor
     00014DCA  _check_collision_in_direction      actor
     000155BA  _ui_swap_tiles                     
     00015604  _ui_print_make_mask_lr             
     00015620  _ui_print_make_mask_rl             
     0001563C  _ui_init                           ui
     0001570B  _ui_load_tiles                     ui
     00015762  _ui_draw_frame                     ui
     000157F6  _ui_print_reset                    ui
     0001584C  _ui_set_start_tile                 ui
     00015878  _ui_print_render                   ui
     00015B19  _ui_draw_text_buffer_char          ui
     0001600D  _ui_run_menu                       ui
     000162CB  _ui_run_modal                      ui
     0001639A  ___func_VM_ACTOR                   vm_actor
     0001639A  _vm_actor_move_to                  vm_actor
     00016D37  _vm_actor_move_cancel              vm_actor
     00016D6D  _vm_actor_activate                 vm_actor
     00016DBF  _vm_actor_deactivate               vm_actor
     00016E10  _vm_actor_terminate_update         vm_actor
     00016E57  _vm_actor_set_dir                  vm_actor
     00016EA0  _vm_actor_set_anim                 vm_actor
     00016F2D  _vm_actor_set_pos                  vm_actor
     00016FA7  _vm_actor_get_pos                  vm_actor
     00017016  _vm_actor_get_dir                  vm_actor
     00017090  _vm_actor_get_angle                vm_actor
     00017111  _vm_actor_emote                    vm_actor
     000171D5  _vm_actor_set_bounds               vm_actor
     00017233  _vm_actor_set_spritesheet          vm_actor
     00017302  _vm_actor_replace_tile             vm_actor
     0001736C  _vm_actor_set_anim_tick            vm_actor
ASxxxx Linker V03.00 + NoICE + sdld,  page 49.
Hexadecimal  [32-Bits]

Area                                    Addr        Size        Decimal Bytes (Attributes)
--------------------------------        ----        ----        ------- ----- ------------
_CODE_1                             00014000    00004000 =       16384. bytes (REL,CON)

      Value  Global                              Global Defined In Module
      -----  --------------------------------   ------------------------
     000173AA  _vm_actor_set_move_speed           vm_actor
     000173E8  _vm_actor_set_anim_frame           vm_actor
     0001742C  _vm_actor_get_anim_frame           vm_actor
     00017475  _vm_actor_set_anim_set             vm_actor
     00017502  _vm_actor_set_spritesheet_by_ref   vm_actor
     00017610  _vm_actor_set_flags                vm_actor
     000176BE  ___func_VM_SGB                     vm_sgb
     000176BE  ___func_bg_room_tileset            bg_room_tileset
     000176BE  _bg_room_tileset                   bg_room_tileset

ASxxxx Linker V03.00 + NoICE + sdld,  page 50.
Hexadecimal  [32-Bits]

Area                                    Addr        Size        Decimal Bytes (Attributes)
--------------------------------        ----        ----        ------- ----- ------------
_CODE_9                             00094000    000011D2 =        4562. bytes (REL,CON)

      Value  Global                              Global Defined In Module
      -----  --------------------------------   ------------------------
     00094000  _bootstrap_script                  
     0009400B  _camera_init                       camera
     00094029  _camera_reset                      camera
     00094039  _input_init                        input
     0009405F  _remove_LCD_ISRs                   interrupts
     00094080  _parallax_init                     parallax
     000940A4  _scroll_rect                       
     000940E1  _SIO_init                          sio
     0009410A  _actor_0_interact                  actor_0_interact
     0009412C  _actor_0_update                    actor_0_update
     00094138  _actor_10_interact                 actor_10_interact
     0009416D  _actor_10_update                   actor_10_update
     00094179  _actor_11_interact                 actor_11_interact
     000941AE  _actor_11_update                   actor_11_update
     000941BA  _actor_12_interact                 actor_12_interact
     000941EF  _actor_12_update                   actor_12_update
     000941FB  _actor_13_interact                 actor_13_interact
     00094230  _actor_13_update                   actor_13_update
     0009423C  _actor_14_interact                 actor_14_interact
     00094271  _actor_14_update                   actor_14_update
     0009427D  _actor_15_interact                 actor_15_interact
     000942B2  _actor_15_update                   actor_15_update
     000942BE  _actor_16_interact                 actor_16_interact
     000942F3  _actor_16_update                   actor_16_update
     000942FF  _actor_17_interact                 actor_17_interact
     00094334  _actor_17_update                   actor_17_update
     00094340  _actor_21_update                   actor_21_update
     00094350  _actor_23_update                   actor_23_update
     00094360  _actor_24_update                   actor_24_update
     00094370  _actor_25_update                   actor_25_update
     00094380  _actor_27_interact                 actor_27_interact
     00094399  _actor_28_interact                 actor_28_interact
     000943B2  _actor_29_interact                 actor_29_interact
     000943CB  _actor_3_interact                  actor_3_interact
     000943FD  _actor_3_update                    actor_3_update
     00094409  _actor_31_interact                 actor_31_interact
     00094422  _actor_33_update                   actor_33_update
     00094432  _actor_34_interact                 actor_34_interact
     0009444B  _actor_35_interact                 actor_35_interact
     00094464  _actor_38_interact                 actor_38_interact
     0009447D  _actor_39_interact                 actor_39_interact
     00094496  _actor_4_interact                  actor_4_interact
     000944C8  _actor_4_update                    actor_4_update
     000944D4  _actor_40_interact                 actor_40_interact
     000944ED  _actor_43_interact                 actor_43_interact
     00094506  _actor_44_interact                 actor_44_interact
     0009451F  _actor_45_interact                 actor_45_interact
     00094538  _actor_47_interact                 actor_47_interact
     00094551  _actor_48_interact                 actor_48_interact
     0009456A  _actor_5_interact                  actor_5_interact
ASxxxx Linker V03.00 + NoICE + sdld,  page 51.
Hexadecimal  [32-Bits]

Area                                    Addr        Size        Decimal Bytes (Attributes)
--------------------------------        ----        ----        ------- ----- ------------
_CODE_9                             00094000    000011D2 =        4562. bytes (REL,CON)

      Value  Global                              Global Defined In Module
      -----  --------------------------------   ------------------------
     0009459C  _actor_5_update                    actor_5_update
     000945A8  _actor_51_interact                 actor_51_interact
     000945C1  _actor_51_update                   actor_51_update
     000945F6  _actor_52_interact                 actor_52_interact
     0009460F  _actor_52_update                   actor_52_update
     00094644  _actor_53_interact                 actor_53_interact
     0009465D  _actor_53_update                   actor_53_update
     00094692  _actor_6_interact                  actor_6_interact
     000946C4  _actor_6_update                    actor_6_update
     000946D0  _actor_7_interact                  actor_7_interact
     00094702  _actor_7_update                    actor_7_update
     0009470E  _actor_8_interact                  actor_8_interact
     00094740  _actor_8_update                    actor_8_update
     0009474C  _actor_9_interact                  actor_9_interact
     0009477E  _actor_9_update                    actor_9_update
     0009478A  ___func_bg_bg_level1_144px         bg_bg_level1_144px
     0009478A  _bg_bg_level1_144px                bg_bg_level1_144px
     00094798  ___func_bg_bg_level2               bg_bg_level2
     00094798  _bg_bg_level2                      bg_bg_level2
     000947A6  ___func_bg_leaving_earth           bg_leaving_earth
     000947A6  _bg_leaving_earth                  bg_leaving_earth
     000947B4  ___func_bg_logo                    bg_logo
     000947B4  _bg_logo                           bg_logo
     000947C2  ___func_bg_menu_page1              bg_menu_page1
     000947C2  _bg_menu_page1                     bg_menu_page1
     000947D0  ___func_bg_menu_page2              bg_menu_page2
     000947D0  _bg_menu_page2                     bg_menu_page2
     000947DE  ___func_bg_room                    bg_room
     000947DE  _bg_room                           bg_room
     000947EC  ___func_bg_titlescreen             bg_titlescreen
     000947EC  _bg_titlescreen                    bg_titlescreen
     000947FA  ___func_cursor_image               cursor_image
     000947FA  _cursor_image                      cursor_image
     0009480A  ___func_scene_9_sprites            scene_9_sprites
     0009480A  _scene_9_sprites                   scene_9_sprites
     00094819  ___func_scene_9_triggers           scene_9_triggers
     00094819  _scene_9_triggers                  scene_9_triggers
     00094829  ___func_scene_9                    scene_9
     00094829  _scene_9                           scene_9
     00094864  ___func_scene_logo                 scene_logo
     00094864  _scene_logo                        scene_logo
     0009489F  ___func_scene_menu_page_1_sprite   scene_menu_page_1_sprites
     0009489F  _scene_menu_page_1_sprites         scene_menu_page_1_sprites
     000948A2  ___func_scene_menu_page_1          scene_menu_page_1
     000948A2  _scene_menu_page_1                 scene_menu_page_1
     000948DD  ___func_scene_menu_page_2_sprite   scene_menu_page_2_sprites
     000948DD  _scene_menu_page_2_sprites         scene_menu_page_2_sprites
     000948E3  ___func_scene_menu_page_2          scene_menu_page_2
     000948E3  _scene_menu_page_2                 scene_menu_page_2
     0009491E  ___func_scene_parallax_example_s   scene_parallax_example_sprit
     0009491E  _scene_parallax_example_sprites    scene_parallax_example_sprit
ASxxxx Linker V03.00 + NoICE + sdld,  page 52.
Hexadecimal  [32-Bits]

Area                                    Addr        Size        Decimal Bytes (Attributes)
--------------------------------        ----        ----        ------- ----- ------------
_CODE_9                             00094000    000011D2 =        4562. bytes (REL,CON)

      Value  Global                              Global Defined In Module
      -----  --------------------------------   ------------------------
     00094930  ___func_scene_parallax_example_t   scene_parallax_example_trigg
     00094930  _scene_parallax_example_triggers   scene_parallax_example_trigg
     00094940  ___func_scene_parallax_example     scene_parallax_example
     00094940  _scene_parallax_example            scene_parallax_example
     0009497B  _scene_player_s_house_init         scene_player_s_house_init
     0009499A  ___func_scene_player_s_house       scene_player_s_house
     0009499A  _scene_player_s_house              scene_player_s_house
     000949D5  ___func_scene_space_battle_proje   scene_space_battle_projectil
     000949D5  _scene_space_battle_projectiles    scene_space_battle_projectil
     00094A03  ___func_scene_space_battle_sprit   scene_space_battle_sprites
     00094A03  _scene_space_battle_sprites        scene_space_battle_sprites
     00094A1B  ___func_scene_space_battle_trigg   scene_space_battle_triggers
     00094A1B  _scene_space_battle_triggers       scene_space_battle_triggers
     00094A23  ___func_scene_space_battle         scene_space_battle
     00094A23  _scene_space_battle                scene_space_battle
     00094A5E  ___func_scene_title_screen         scene_title_screen
     00094A5E  _scene_title_screen                scene_title_screen
     00094A99  _script_12                         script_12
     00094AA0  _script_15                         script_15
     00094AC9  _script_enemy_ship_destroy         script_enemy_ship_destroy
     00094B05  _script_init_menu                  script_init_menu
     00094B0F  _script_init_weapons               script_init_weapons
     00094B19  _script_input_1                    script_input_1
     00094B1F  _script_input_2                    script_input_2
     00094B41  _script_input_3                    script_input_3
     00094B67  _script_input_4                    script_input_4
     00094B6D  _script_input_5                    script_input_5
     00094B73  _script_turnip_init                script_turnip_init
     00094BA2  ___func_sound_legacy_0             sound_legacy_0
     00094BA2  _sound_legacy_0                    sound_legacy_0
     00094BB5  ___func_sprite_bullet_left         sprite_bullet_left
     00094BB5  _sprite_bullet_left_metasprite_0   sprite_bullet_left
     00094BC1  _sprite_bullet_left_metasprite_1   sprite_bullet_left
     00094BCD  _sprite_bullet_left_metasprites    sprite_bullet_left
     00094BD1  _sprite_bullet_left_animations     sprite_bullet_left
     00094BE1  _sprite_bullet_left_animations_l   sprite_bullet_left
     00094BE3  _sprite_bullet_left                sprite_bullet_left
     00094BF6  ___func_sprite_bullet_right        sprite_bullet_right
     00094BF6  _sprite_bullet_right_metasprite_   sprite_bullet_right
     00094C02  _sprite_bullet_right_metasprite_   sprite_bullet_right
     00094C0E  _sprite_bullet_right_metasprites   sprite_bullet_right
     00094C12  _sprite_bullet_right_animations    sprite_bullet_right
     00094C22  _sprite_bullet_right_animations_   sprite_bullet_right
     00094C24  _sprite_bullet_right               sprite_bullet_right
     00094C37  ___func_sprite_checkbox            sprite_checkbox
     00094C37  _sprite_checkbox_metasprite_0      sprite_checkbox
     00094C3F  _sprite_checkbox_metasprite_1      sprite_checkbox
     00094C47  _sprite_checkbox_metasprites       sprite_checkbox
     00094C4B  _sprite_checkbox_animations        sprite_checkbox
     00094C5B  _sprite_checkbox_animations_look   sprite_checkbox
     00094C5D  _sprite_checkbox                   sprite_checkbox
ASxxxx Linker V03.00 + NoICE + sdld,  page 53.
Hexadecimal  [32-Bits]

Area                                    Addr        Size        Decimal Bytes (Attributes)
--------------------------------        ----        ----        ------- ----- ------------
_CODE_9                             00094000    000011D2 =        4562. bytes (REL,CON)

      Value  Global                              Global Defined In Module
      -----  --------------------------------   ------------------------
     00094C70  ___func_sprite_drop_ui             sprite_drop_ui
     00094C70  _sprite_drop_ui_metasprite_0       sprite_drop_ui
     00094C7C  _sprite_drop_ui_metasprites        sprite_drop_ui
     00094C7E  _sprite_drop_ui_animations         sprite_drop_ui
     00094C8E  _sprite_drop_ui_animations_looku   sprite_drop_ui
     00094C90  _sprite_drop_ui                    sprite_drop_ui
     00094CA3  ___func_sprite_fly_temp_tileset    sprite_fly_temp_tileset
     00094CA3  _sprite_fly_temp_tileset           sprite_fly_temp_tileset
     00094CE5  ___func_sprite_fly_temp            sprite_fly_temp
     00094CE5  _sprite_fly_temp_metasprite_0      sprite_fly_temp
     00094CF1  _sprite_fly_temp_metasprites       sprite_fly_temp
     00094CF3  _sprite_fly_temp_animations        sprite_fly_temp
     00094D03  _sprite_fly_temp_animations_look   sprite_fly_temp
     00094D05  _sprite_fly_temp                   sprite_fly_temp
     00094D18  ___func_sprite_rock_tileset        sprite_rock_tileset
     00094D18  _sprite_rock_tileset               sprite_rock_tileset
     00094D5A  ___func_sprite_rock                sprite_rock
     00094D5A  _sprite_rock_metasprite_0          sprite_rock
     00094D66  _sprite_rock_metasprites           sprite_rock
     00094D68  _sprite_rock_animations            sprite_rock
     00094D78  _sprite_rock_animations_lookup     sprite_rock
     00094D7A  _sprite_rock                       sprite_rock
     00094D8D  ___func_sprite_signpost_tileset    sprite_signpost_tileset
     00094D8D  _sprite_signpost_tileset           sprite_signpost_tileset
     00094DCF  ___func_sprite_signpost            sprite_signpost
     00094DCF  _sprite_signpost_metasprite_0      sprite_signpost
     00094DDB  _sprite_signpost_metasprites       sprite_signpost
     00094DDD  _sprite_signpost_animations        sprite_signpost
     00094DED  _sprite_signpost_animations_look   sprite_signpost
     00094DEF  _sprite_signpost                   sprite_signpost
     00094E02  ___func_sprite_smoke_temp_tilese   sprite_smoke_temp_tileset
     00094E02  _sprite_smoke_temp_tileset         sprite_smoke_temp_tileset
     00094E44  ___func_sprite_smoke_temp          sprite_smoke_temp
     00094E44  _sprite_smoke_temp_metasprite_0    sprite_smoke_temp
     00094E5C  _sprite_smoke_temp_metasprites     sprite_smoke_temp
     00094E5E  _sprite_smoke_temp_animations      sprite_smoke_temp
     00094E6E  _sprite_smoke_temp_animations_lo   sprite_smoke_temp
     00094E70  _sprite_smoke_temp                 sprite_smoke_temp
     00094E83  ___func_sprite_soot_baby_temp_ti   sprite_soot_baby_temp_tilese
     00094E83  _sprite_soot_baby_temp_tileset     sprite_soot_baby_temp_tilese
     00094EC5  ___func_sprite_soot_baby_temp      sprite_soot_baby_temp
     00094EC5  _sprite_soot_baby_temp_metasprit   sprite_soot_baby_temp
     00094ED1  _sprite_soot_baby_temp_metasprit   sprite_soot_baby_temp
     00094ED3  _sprite_soot_baby_temp_animation   sprite_soot_baby_temp
     00094EE3  _sprite_soot_baby_temp_animation   sprite_soot_baby_temp
     00094EE5  _sprite_soot_baby_temp             sprite_soot_baby_temp
     00094EF8  ___func_sprite_sprite_raindrop     sprite_sprite_raindrop
     00094EF8  _sprite_sprite_raindrop_metaspri   sprite_sprite_raindrop
     00094F04  _sprite_sprite_raindrop_metaspri   sprite_sprite_raindrop
     00094F10  _sprite_sprite_raindrop_metaspri   sprite_sprite_raindrop
     00094F14  _sprite_sprite_raindrop_animatio   sprite_sprite_raindrop
ASxxxx Linker V03.00 + NoICE + sdld,  page 54.
Hexadecimal  [32-Bits]

Area                                    Addr        Size        Decimal Bytes (Attributes)
--------------------------------        ----        ----        ------- ----- ------------
_CODE_9                             00094000    000011D2 =        4562. bytes (REL,CON)

      Value  Global                              Global Defined In Module
      -----  --------------------------------   ------------------------
     00094F24  _sprite_sprite_raindrop_animatio   sprite_sprite_raindrop
     00094F26  _sprite_sprite_raindrop            sprite_sprite_raindrop
     00094F39  ___func_sprite_ui_weapon_tileset   sprite_ui_weapon_tileset
     00094F39  _sprite_ui_weapon_tileset          sprite_ui_weapon_tileset
     00094F7B  ___func_sprite_ui_weapon           sprite_ui_weapon
     00094F7B  _sprite_ui_weapon_metasprite_0     sprite_ui_weapon
     00094F87  _sprite_ui_weapon_metasprites      sprite_ui_weapon
     00094F89  _sprite_ui_weapon_animations       sprite_ui_weapon
     00094F99  _sprite_ui_weapon_animations_loo   sprite_ui_weapon
     00094F9B  _sprite_ui_weapon                  sprite_ui_weapon
     00094FAE  _spritesheet_none_metasprite       spritesheet_none
     00094FB2  _spritesheet_none_metasprites      spritesheet_none
     00094FB4  _spritesheet_none                  spritesheet_none
     00094FC7  _trigger_0_interact                trigger_0_interact
     00094FD6  _trigger_1_interact                trigger_1_interact
     00094FE5  _trigger_2_interact                trigger_2_interact
     0009500B  _trigger_20_interact               trigger_20_interact
     0009503F  _trigger_21_interact               trigger_21_interact
     00095068  _trigger_23_interact               trigger_23_interact
     000950A5  _trigger_24_interact               trigger_24_interact
     000950CC  _trigger_25_interact               trigger_25_interact
     00095102  _trigger_26_interact               trigger_26_interact
     0009512E  _trigger_27_interact               trigger_27_interact
     0009515F  _trigger_28_interact               trigger_28_interact
     00095197  _trigger_29_interact               trigger_29_interact
     0009519B  _trigger_40_interact               trigger_40_interact
     000951C1  _logo_init                         logo
     000951D1  _logo_update                       logo
ASxxxx Linker V03.00 + NoICE + sdld,  page 55.
Hexadecimal  [32-Bits]

Area                                    Addr        Size        Decimal Bytes (Attributes)
--------------------------------        ----        ----        ------- ----- ------------
_CODE_7                             00074000    00003FFE =       16382. bytes (REL,CON)

      Value  Global                              Global Defined In Module
      -----  --------------------------------   ------------------------
     00074000  _core_reset                        core
     00074075  _process_VM                        core
     0007431C  _core_run                          core
     000743FE  ___HandleCrash_banked              
     00074765  _CGBFadeToWhiteStep                fade_manager
     0007479E  _CGBFadeToBlackStep                fade_manager
     000747D9  _ApplyPaletteChangeColor           fade_manager
     0007481D  _fade_speeds                       fade_manager
     00074824  _DMGFadeToWhiteStep                fade_manager
     00074847  _DMGFadeToBlackStep                fade_manager
     0007486C  _ApplyPaletteChangeDMG             fade_manager
     000748E3  _fade_init                         fade_manager
     0007490B  _fade_in                           fade_manager
     0007493C  _fade_out                          fade_manager
     0007496E  _fade_update                       fade_manager
     000749C8  _fade_applypalettechange           fade_manager
     000749E2  _fade_setspeed                     fade_manager
     000749F2  _fade_in_modal                     fade_manager
     00074A0C  _fade_out_modal                    fade_manager
     00074A26  _printer_send_receive              gbprinter
     00074A60  _printer_send_byte                 gbprinter
     00074A7F  _printer_send_command              gbprinter
     00074AAA  _printer_print_tile                gbprinter
     00074B44  _printer_wait                      gbprinter
     00074B74  _gbprinter_detect                  gbprinter
     00074B96  _gbprinter_print_overlay           gbprinter
     00074DD9  _data_init                         load_save
     00074E24  _save_points                       load_save
     00074E7C  _data_slot_address                 load_save
     00074EE0  _data_save                         load_save
     00074FC6  _data_load                         load_save
     000750D5  _data_clear                        load_save
     00075106  _data_peek                         load_save
     000751B4  _set_sgb_border                    sgb_border
     000753E5  _trigger_reset                     trigger
     000753F5  _trigger_interact                  trigger
     00075435  _trigger_activate_at               trigger
     00075480  _trigger_at_intersection           trigger
     00075595  _trigger_activate_at_intersectio   trigger
     000756D7  _trigger_at_tile                   trigger
     00075767  ___func_VM_CAMERA                  vm_camera
     00075767  _vm_camera_move_to                 vm_camera
     000758BA  _vm_camera_set_pos                 vm_camera
     00075901  _camera_shake_frames               vm_camera
     000759F9  ___func_VM_PALETTE                 vm_palette
     000759F9  _vm_load_palette                   vm_palette
     00075BAD  ___func_VM_SIO                     vm_sio
     00075BAD  _vm_sio_set_mode                   vm_sio
     00075BC0  _vm_sio_exchange                   vm_sio
     00075F19  _actor_26_interact                 actor_26_interact
ASxxxx Linker V03.00 + NoICE + sdld,  page 56.
Hexadecimal  [32-Bits]

Area                                    Addr        Size        Decimal Bytes (Attributes)
--------------------------------        ----        ----        ------- ----- ------------
_CODE_7                             00074000    00003FFE =       16382. bytes (REL,CON)

      Value  Global                              Global Defined In Module
      -----  --------------------------------   ------------------------
     00075F32  ___func_bg_leaving_earth_tileset   bg_leaving_earth_tileset
     00075F32  _bg_leaving_earth_tileset          bg_leaving_earth_tileset
     000761F4  ___func_bg_menu_page1_tileset      bg_menu_page1_tileset
     000761F4  _bg_menu_page1_tileset             bg_menu_page1_tileset
     00076436  ___func_bg_menu_page2_tileset      bg_menu_page2_tileset
     00076436  _bg_menu_page2_tileset             bg_menu_page2_tileset
     00076608  ___func_scene_menu_page_1_actors   scene_menu_page_1_actors
     00076608  _scene_menu_page_1_actors          scene_menu_page_1_actors
     00076740  ___func_scene_parallax_example_a   scene_parallax_example_actor
     00076740  _scene_parallax_example_actors     scene_parallax_example_actor
     00076B1C  ___func_scene_space_battle_actor   scene_space_battle_actors
     00076B1C  _scene_space_battle_actors         scene_space_battle_actors
     00076EF8  ___func_sprite_elephant_tileset    sprite_elephant_tileset
     00076EF8  _sprite_elephant_tileset           sprite_elephant_tileset
     000771FA  ___func_sprite_gbs_font_tileset    sprite_gbs_font_tileset
     000771FA  _sprite_gbs_font_tileset           sprite_gbs_font_tileset
     000773DC  ___func_sprite_player_platform_t   sprite_player_platform_tiles
     000773DC  _sprite_player_platform_tileset    sprite_player_platform_tiles
     000775FE  ___func_sprite_player_platform     sprite_player_platform
     000775FE  _sprite_player_platform_metaspri   sprite_player_platform
     00077612  _sprite_player_platform_metaspri   sprite_player_platform
     00077626  _sprite_player_platform_metaspri   sprite_player_platform
     0007763A  _sprite_player_platform_metaspri   sprite_player_platform
     0007764E  _sprite_player_platform_metaspri   sprite_player_platform
     00077662  _sprite_player_platform_metaspri   sprite_player_platform
     00077676  _sprite_player_platform_metaspri   sprite_player_platform
     0007768A  _sprite_player_platform_metaspri   sprite_player_platform
     0007769E  _sprite_player_platform_metaspri   sprite_player_platform
     000776A2  _sprite_player_platform_metaspri   sprite_player_platform
     000776B6  _sprite_player_platform_metaspri   sprite_player_platform
     000776CA  _sprite_player_platform_metaspri   sprite_player_platform
     000776DE  _sprite_player_platform_metaspri   sprite_player_platform
     000776F2  _sprite_player_platform_metaspri   sprite_player_platform
     00077706  _sprite_player_platform_metaspri   sprite_player_platform
     0007771A  _sprite_player_platform_metaspri   sprite_player_platform
     0007772E  _sprite_player_platform_metaspri   sprite_player_platform
     00077742  _sprite_player_platform_metaspri   sprite_player_platform
     00077770  _sprite_player_platform_animatio   sprite_player_platform
     00077780  _sprite_player_platform_animatio   sprite_player_platform
     00077782  _sprite_player_platform            sprite_player_platform
     00077795  ___func_sprite_player_tileset      sprite_player_tileset
     00077795  _sprite_player_tileset             sprite_player_tileset
     00077917  ___func_sprite_space_mine_tilese   sprite_space_mine_tileset
     00077917  _sprite_space_mine_tileset         sprite_space_mine_tileset
     00077A99  ___func_sprite_truck_temp_tilese   sprite_truck_temp_tileset
     00077A99  _sprite_truck_temp_tileset         sprite_truck_temp_tileset
     00077C9B  _pointnclick_init                  pointnclick
     00077CD4  _pointnclick_update                pointnclick

ASxxxx Linker V03.00 + NoICE + sdld,  page 57.
Hexadecimal  [32-Bits]

Area                                    Addr        Size        Decimal Bytes (Attributes)
--------------------------------        ----        ----        ------- ----- ------------
_CRASH_HEADER0                      00000000    00000005 =           5. bytes (ABS,CON)

      Value  Global                              Global Defined In Module
      -----  --------------------------------   ------------------------
ASxxxx Linker V03.00 + NoICE + sdld,  page 58.
Hexadecimal  [32-Bits]

Area                                    Addr        Size        Decimal Bytes (Attributes)
--------------------------------        ----        ----        ------- ----- ------------
_CRASH_HEADER1                      00000000    00000004 =           4. bytes (ABS,CON)

      Value  Global                              Global Defined In Module
      -----  --------------------------------   ------------------------
ASxxxx Linker V03.00 + NoICE + sdld,  page 59.
Hexadecimal  [32-Bits]

Area                                    Addr        Size        Decimal Bytes (Attributes)
--------------------------------        ----        ----        ------- ----- ------------
_CRASH_SCRATCH2                     00000000    000001CB =         459. bytes (ABS,CON)

      Value  Global                              Global Defined In Module
      -----  --------------------------------   ------------------------
ASxxxx Linker V03.00 + NoICE + sdld,  page 60.
Hexadecimal  [32-Bits]

Area                                    Addr        Size        Decimal Bytes (Attributes)
--------------------------------        ----        ----        ------- ----- ------------
_CODE_5                             00054000    00004000 =       16384. bytes (REL,CON)

      Value  Global                              Global Defined In Module
      -----  --------------------------------   ------------------------
     00054000  _load_init                         data_manager
     00054013  _spritesheet_none_far              data_manager
     00054016  _load_bkg_tileset                  data_manager
     000540EF  _load_background                   data_manager
     000541ED  _load_sprite                       data_manager
     000542EA  _load_bounds                       data_manager
     0005430A  _do_load_palette                   data_manager
     0005438A  _load_scene                        data_manager
     00054C64  _load_player                       data_manager
     00054CB0  _load_emote                        data_manager
     00054CC4  ___func_VM_UI                      vm_ui
     00054CC4  _vm_display_text                   vm_ui
     00054D32  _vm_switch_text_layer              vm_ui
     00054D4C  _vm_overlay_setpos                 vm_ui
     00054D66  _vm_overlay_wait                   vm_ui
     00054DF7  _vm_overlay_move_to                vm_ui
     00054E3B  _vm_overlay_set_scroll             vm_ui
     00054E78  _vm_overlay_clear                  vm_ui
     00054F51  _vm_overlay_show                   vm_ui
     00054F9F  _vm_choice                         vm_ui
     000550BA  _vm_set_font                       vm_ui
     000550EB  _vm_overlay_scroll                 vm_ui
     0005514B  _vm_overlay_set_submap             vm_ui
     000551BB  _vm_overlay_set_submap_ex          vm_ui
     000552BE  _vm_overlay_set_map                vm_ui
     00055422  _vm_set_text_sound                 vm_ui
     0005543B  ___func_bg_bg_level2_tileset       bg_bg_level2_tileset
     0005543B  _bg_bg_level2_tileset              bg_bg_level2_tileset
     00056426  _song_red_test_Data                song_red_test_Data
     00056EAC  _song_rulz_fastpacespeedrace_0_D   song_rulz_fastpacespeedrace_
     000576F2  _song_rulz_pause_underground_0_D   song_rulz_pause_underground_
     00057707  ___func_scene_9_collisions         scene_9_collisions
     00057707  _scene_9_collisions                scene_9_collisions
     00057FE3  _script_enemy_ship_hit_playe       script_enemy_ship_hit_playe

ASxxxx Linker V03.00 + NoICE + sdld,  page 61.
Hexadecimal  [32-Bits]

Area                                    Addr        Size        Decimal Bytes (Attributes)
--------------------------------        ----        ----        ------- ----- ------------
_CODE_8                             00084000    00004000 =       16384. bytes (REL,CON)

      Value  Global                              Global Defined In Module
      -----  --------------------------------   ------------------------
     00084000  _events_init                       events
     00084040  _timers_init                       events
     000840E8  _save_sram_banks                   
     00084170  _erase_flash                       
     00084186  _restore_sram_bank                 flasher
     000841C0  _restore_sram                      flasher
     000841D6  _save_sram                         flasher
     00084206  _music_init_driver                 music_manager
     0008425D  _music_init_events                 music_manager
     00084299  _music_events_poll                 music_manager
     000842C3  _music_pause                       music_manager
     000842E8  _palette_init                      palette
     00084321  _CGBZeroPalette                    palette
     00084336  ___func_VM_GBPRINTER               vm_gbprinter
     00084336  _vm_print_detect                   vm_gbprinter
     00084388  _vm_print_overlay                  vm_gbprinter
     000843E0  ___func_VM_LOAD_SAVE               vm_load_save
     000843E0  _vm_save_clear                     vm_load_save
     000843EF  _vm_save_peek                      vm_load_save
     00084471  ___func_VM_PROJECTILE              vm_projectiles
     00084471  _vm_projectile_launch              vm_projectiles
     000844B2  _vm_projectile_load_type           vm_projectiles
     0008455D  ___func_VM_RTC                     vm_rtc
     0008455D  _vm_rtc_latch                      vm_rtc
     00084565  _vm_rtc_get                        vm_rtc
     000845CE  _vm_rtc_set                        vm_rtc
     00084636  _vm_rtc_start                      vm_rtc
     00084659  ___func_VM_SCENE                   vm_scene
     00084659  _vm_scene_push                     vm_scene
     000846DE  _vm_scene_pop                      vm_scene
     000846EC  _vm_scene_pop_all                  vm_scene
     000846F7  _vm_scene_stack_reset              vm_scene
     00084700  _itoa_fmt                          vm_ui_a
     00084739  .utoa_fmt                          vm_ui_a
     000847E3  _actor_1_interact                  actor_1_interact
     00084836  _actor_19_interact                 actor_19_interact
     00084889  _actor_22_update                   actor_22_update
     0008493E  _actor_26_update                   actor_26_update
     000849F3  _actor_27_update                   actor_27_update
     00084AA8  _actor_28_update                   actor_28_update
     00084B5D  _actor_29_update                   actor_29_update
     00084C0F  _actor_30_interact                 actor_30_interact
     00084C62  _actor_31_update                   actor_31_update
     00084D14  _actor_32_interact                 actor_32_interact
     00084D67  _actor_34_update                   actor_34_update
     00084E1C  _actor_35_update                   actor_35_update
     00084F4A  _actor_38_update                   actor_38_update
     00084FD0  _actor_39_update                   actor_39_update
     00085056  _actor_40_update                   actor_40_update
     000850DC  _actor_41_interact                 actor_41_interact
ASxxxx Linker V03.00 + NoICE + sdld,  page 62.
Hexadecimal  [32-Bits]

Area                                    Addr        Size        Decimal Bytes (Attributes)
--------------------------------        ----        ----        ------- ----- ------------
_CODE_8                             00084000    00004000 =       16384. bytes (REL,CON)

      Value  Global                              Global Defined In Module
      -----  --------------------------------   ------------------------
     0008512F  _actor_43_update                   actor_43_update
     0008517B  _actor_44_update                   actor_44_update
     000851C7  _actor_45_update                   actor_45_update
     00085213  _actor_46_interact                 actor_46_interact
     00085266  _actor_47_update                   actor_47_update
     000852C9  _actor_48_update                   actor_48_update
     0008532C  _actor_49_interact                 actor_49_interact
     0008537F  _actor_55_interact                 actor_55_interact
     000853D2  _actor_sign_post_5_interact        actor_sign_post_5_interact
     00085446  ___func_avatar_font_0              avatar_font_0
     0008548A  _avatar_font_0                     avatar_font_0
     00085492  ___func_bg_logo_tilemap_attr       bg_logo_tilemap_attr
     00085492  _bg_logo_tilemap_attr              bg_logo_tilemap_attr
     000855FA  ___func_bg_logo_tilemap            bg_logo_tilemap
     000855FA  _bg_logo_tilemap                   bg_logo_tilemap
     00085762  ___func_bg_menu_page1_tilemap      bg_menu_page1_tilemap
     00085762  _bg_menu_page1_tilemap             bg_menu_page1_tilemap
     000858CA  ___func_bg_menu_page2_tilemap      bg_menu_page2_tilemap
     000858CA  _bg_menu_page2_tilemap             bg_menu_page2_tilemap
     00085A32  ___func_bg_room_tilemap_attr       bg_room_tilemap_attr
     00085A32  _bg_room_tilemap_attr              bg_room_tilemap_attr
     00085B9A  ___func_bg_room_tilemap            bg_room_tilemap
     00085B9A  _bg_room_tilemap                   bg_room_tilemap
     00085D02  ___func_bg_titlescreen_tilemap_a   bg_titlescreen_tilemap_attr
     00085D02  _bg_titlescreen_tilemap_attr       bg_titlescreen_tilemap_attr
     00085E6A  ___func_bg_titlescreen_tilemap     bg_titlescreen_tilemap
     00085E6A  _bg_titlescreen_tilemap            bg_titlescreen_tilemap
     00085FD2  ___func_frame_image                frame_image
     00085FD2  _frame_image                       frame_image
     00086062  ___func_palette_0                  palette_0
     00086062  _palette_0                         palette_0
     000860A5  ___func_palette_1                  palette_1
     000860A5  _palette_1                         palette_1
     000860E8  ___func_palette_2                  palette_2
     000860E8  _palette_2                         palette_2
     0008612B  ___func_palette_3                  palette_3
     0008612B  _palette_3                         palette_3
     0008616E  ___func_palette_4                  palette_4
     0008616E  _palette_4                         palette_4
     000861B1  ___func_palette_5                  palette_5
     000861B1  _palette_5                         palette_5
     000861F4  ___func_palette_6                  palette_6
     000861F4  _palette_6                         palette_6
     00086237  ___func_palette_7                  palette_7
     00086237  _palette_7                         palette_7
     0008627A  _scene_9_init                      scene_9_init
     000862C0  ___func_scene_logo_collisions      scene_logo_collisions
     000862C0  _scene_logo_collisions             scene_logo_collisions
     00086428  _scene_logo_init                   scene_logo_init
     00086480  ___func_scene_menu_page_1_collis   scene_menu_page_1_collisions
     00086480  _scene_menu_page_1_collisions      scene_menu_page_1_collisions
ASxxxx Linker V03.00 + NoICE + sdld,  page 63.
Hexadecimal  [32-Bits]

Area                                    Addr        Size        Decimal Bytes (Attributes)
--------------------------------        ----        ----        ------- ----- ------------
_CODE_8                             00084000    00004000 =       16384. bytes (REL,CON)

      Value  Global                              Global Defined In Module
      -----  --------------------------------   ------------------------
     000865E8  _scene_menu_page_1_init            scene_menu_page_1_init
     000866C5  ___func_scene_menu_page_2_actors   scene_menu_page_2_actors
     000866C5  _scene_menu_page_2_actors          scene_menu_page_2_actors
     000867FD  ___func_scene_menu_page_2_collis   scene_menu_page_2_collisions
     000867FD  _scene_menu_page_2_collisions      scene_menu_page_2_collisions
     00086965  _scene_menu_page_2_init            scene_menu_page_2_init
     00086A0A  _scene_parallax_example_init       scene_parallax_example_init
     00086A50  ___func_scene_player_s_house_col   scene_player_s_house_collisi
     00086A50  _scene_player_s_house_collisions   scene_player_s_house_collisi
     00086BB8  ___func_scene_player_s_house_tri   scene_player_s_house_trigger
     00086BB8  _scene_player_s_house_triggers     scene_player_s_house_trigger
     00086C10  _scene_space_battle_init           scene_space_battle_init
     00086C93  _scene_space_battle_p_hit1         scene_space_battle_p_hit1
     00086CFF  ___func_scene_title_screen_colli   scene_title_screen_collision
     00086CFF  _scene_title_screen_collisions     scene_title_screen_collision
     00086E67  _scene_title_screen_init           scene_title_screen_init
     00086F64  _script_enemy_ship_movement__0     script_enemy_ship_movement__
     00087059  _script_enemy_ship_movement__1     script_enemy_ship_movement__
     0008714E  _script_enemy_ship_movement__2     script_enemy_ship_movement__
     00087243  _script_enemy_ship_movement_       script_enemy_ship_movement_
     00087338  _script_engine_init                
     00087380  _script_turnip_collisions          script_turnip_collisions
     000873CE  _script_turnip_movement            script_turnip_movement
     0008746D  ___func_sprite_bullet_left_tiles   sprite_bullet_left_tileset
     0008746D  _sprite_bullet_left_tileset        sprite_bullet_left_tileset
     000874EF  ___func_sprite_bullet_right_tile   sprite_bullet_right_tileset
     000874EF  _sprite_bullet_right_tileset       sprite_bullet_right_tileset
     00087571  ___func_sprite_checkbox_tileset    sprite_checkbox_tileset
     00087571  _sprite_checkbox_tileset           sprite_checkbox_tileset
     000875B3  ___func_sprite_cursor_tileset      sprite_cursor_tileset
     000875B3  _sprite_cursor_tileset             sprite_cursor_tileset
     00087635  ___func_sprite_cursor              sprite_cursor
     00087635  _sprite_cursor_metasprite_0        sprite_cursor
     00087641  _sprite_cursor_metasprite_1        sprite_cursor
     0008764D  _sprite_cursor_metasprite_2        sprite_cursor
     00087659  _sprite_cursor_metasprites         sprite_cursor
     0008765F  _sprite_cursor_animations          sprite_cursor
     0008766F  _sprite_cursor_animations_lookup   sprite_cursor
     00087671  _sprite_cursor                     sprite_cursor
     00087684  ___func_sprite_drop_ui_tileset     sprite_drop_ui_tileset
     00087684  _sprite_drop_ui_tileset            sprite_drop_ui_tileset
     000876C6  ___func_sprite_enemy_ship_tilese   sprite_enemy_ship_tileset
     000876C6  _sprite_enemy_ship_tileset         sprite_enemy_ship_tileset
     00087828  ___func_sprite_enemy_ship          sprite_enemy_ship
     00087828  _sprite_enemy_ship_metasprite_0    sprite_enemy_ship
     00087834  _sprite_enemy_ship_metasprite_1    sprite_enemy_ship
     00087840  _sprite_enemy_ship_metasprite_2    sprite_enemy_ship
     0008784C  _sprite_enemy_ship_metasprite_3    sprite_enemy_ship
     00087858  _sprite_enemy_ship_metasprite_4    sprite_enemy_ship
     00087864  _sprite_enemy_ship_metasprite_5    sprite_enemy_ship
     00087870  _sprite_enemy_ship_metasprites     sprite_enemy_ship
ASxxxx Linker V03.00 + NoICE + sdld,  page 64.
Hexadecimal  [32-Bits]

Area                                    Addr        Size        Decimal Bytes (Attributes)
--------------------------------        ----        ----        ------- ----- ------------
_CODE_8                             00084000    00004000 =       16384. bytes (REL,CON)

      Value  Global                              Global Defined In Module
      -----  --------------------------------   ------------------------
     0008787C  _sprite_enemy_ship_animations      sprite_enemy_ship
     0008789C  _sprite_enemy_ship_animations_lo   sprite_enemy_ship
     000878A0  _sprite_enemy_ship                 sprite_enemy_ship
     000878B3  ___func_sprite_foreground_temp_p   sprite_foreground_temp_powe_
     000878B3  _sprite_foreground_temp_powe_til   sprite_foreground_temp_powe_
     00087955  ___func_sprite_foreground_temp_p   sprite_foreground_temp_powe
     00087955  _sprite_foreground_temp_powe_met   sprite_foreground_temp_powe
     00087979  _sprite_foreground_temp_powe_met   sprite_foreground_temp_powe
     0008799D  _sprite_foreground_temp_powe_met   sprite_foreground_temp_powe
     000879A1  _sprite_foreground_temp_powe_ani   sprite_foreground_temp_powe
     000879B1  _sprite_foreground_temp_powe_ani   sprite_foreground_temp_powe
     000879B3  _sprite_foreground_temp_powe       sprite_foreground_temp_powe
     000879C6  ___func_sprite_gbs_font            sprite_gbs_font
     000879C6  _sprite_gbs_font_metasprite_0      sprite_gbs_font
     000879D2  _sprite_gbs_font_metasprite_1      sprite_gbs_font
     000879DE  _sprite_gbs_font_metasprite_2      sprite_gbs_font
     000879EA  _sprite_gbs_font_metasprite_3      sprite_gbs_font
     000879F6  _sprite_gbs_font_metasprite_4      sprite_gbs_font
     00087A02  _sprite_gbs_font_metasprite_5      sprite_gbs_font
     00087A0E  _sprite_gbs_font_metasprite_6      sprite_gbs_font
     00087A1A  _sprite_gbs_font_metasprite_7      sprite_gbs_font
     00087A26  _sprite_gbs_font_metasprite_8      sprite_gbs_font
     00087A32  _sprite_gbs_font_metasprite_9      sprite_gbs_font
     00087A3E  _sprite_gbs_font_metasprites       sprite_gbs_font
     00087A52  _sprite_gbs_font_animations        sprite_gbs_font
     00087A62  _sprite_gbs_font_animations_look   sprite_gbs_font
     00087A64  _sprite_gbs_font                   sprite_gbs_font
     00087A77  ___func_sprite_player_ship_tiles   sprite_player_ship_tileset
     00087A77  _sprite_player_ship_tileset        sprite_player_ship_tileset
     00087B99  ___func_sprite_player_ship         sprite_player_ship
     00087B99  _sprite_player_ship_metasprite_0   sprite_player_ship
     00087BA5  _sprite_player_ship_metasprite_1   sprite_player_ship
     00087BB1  _sprite_player_ship_metasprite_2   sprite_player_ship
     00087BBD  _sprite_player_ship_metasprite_3   sprite_player_ship
     00087BC9  _sprite_player_ship_metasprite_4   sprite_player_ship
     00087BD5  _sprite_player_ship_metasprite_5   sprite_player_ship
     00087BE1  _sprite_player_ship_metasprite_6   sprite_player_ship
     00087BED  _sprite_player_ship_metasprite_7   sprite_player_ship
     00087BF9  _sprite_player_ship_metasprites    sprite_player_ship
     00087C11  _sprite_player_ship_animations     sprite_player_ship
     00087C21  _sprite_player_ship_animations_l   sprite_player_ship
     00087C23  _sprite_player_ship                sprite_player_ship
     00087C36  ___func_sprite_player              sprite_player
     00087C36  _sprite_player_metasprite_0        sprite_player
     00087C42  _sprite_player_metasprite_1        sprite_player
     00087C4E  _sprite_player_metasprite_2        sprite_player
     00087C5A  _sprite_player_metasprite_3        sprite_player
     00087C66  _sprite_player_metasprite_4        sprite_player
     00087C72  _sprite_player_metasprite_5        sprite_player
     00087C7E  _sprite_player_metasprite_6        sprite_player
     00087C8A  _sprite_player_metasprite_7        sprite_player
ASxxxx Linker V03.00 + NoICE + sdld,  page 65.
Hexadecimal  [32-Bits]

Area                                    Addr        Size        Decimal Bytes (Attributes)
--------------------------------        ----        ----        ------- ----- ------------
_CODE_8                             00084000    00004000 =       16384. bytes (REL,CON)

      Value  Global                              Global Defined In Module
      -----  --------------------------------   ------------------------
     00087C96  _sprite_player_metasprites         sprite_player
     00087CAE  _sprite_player_animations          sprite_player
     00087CBE  _sprite_player_animations_lookup   sprite_player
     00087CC0  _sprite_player                     sprite_player
     00087CD3  ___func_sprite_space_mine          sprite_space_mine
     00087CD3  _sprite_space_mine_metasprite_0    sprite_space_mine
     00087CDF  _sprite_space_mine_metasprite_1    sprite_space_mine
     00087CEB  _sprite_space_mine_metasprite_2    sprite_space_mine
     00087CF7  _sprite_space_mine_metasprite_3    sprite_space_mine
     00087D03  _sprite_space_mine_metasprite_4    sprite_space_mine
     00087D0F  _sprite_space_mine_metasprite_5    sprite_space_mine
     00087D1B  _sprite_space_mine_metasprites     sprite_space_mine
     00087D27  _sprite_space_mine_animations      sprite_space_mine
     00087D47  _sprite_space_mine_animations_lo   sprite_space_mine
     00087D4B  _sprite_space_mine                 sprite_space_mine
     00087D5E  ___func_sprite_sprite_raindrop_t   sprite_sprite_raindrop_tiles
     00087D5E  _sprite_sprite_raindrop_tileset    sprite_sprite_raindrop_tiles
     00087DE0  ___func_sprite_truck_temp          sprite_truck_temp
     00087DE0  _sprite_truck_temp_metasprite_0    sprite_truck_temp
     00087E24  _sprite_truck_temp_metasprites     sprite_truck_temp
     00087E26  _sprite_truck_temp_animations      sprite_truck_temp
     00087E36  _sprite_truck_temp_animations_lo   sprite_truck_temp
     00087E38  _sprite_truck_temp                 sprite_truck_temp
     00087E4B  ___func_sprite_turnip_tileset      sprite_turnip_tileset
     00087E4B  _sprite_turnip_tileset             sprite_turnip_tileset
     00087F0D  ___func_sprite_turnip              sprite_turnip
     00087F0D  _sprite_turnip_metasprite_0        sprite_turnip
     00087F19  _sprite_turnip_metasprite_1        sprite_turnip
     00087F25  _sprite_turnip_metasprite_2        sprite_turnip
     00087F31  _sprite_turnip_metasprites         sprite_turnip
     00087F37  _sprite_turnip_animations          sprite_turnip
     00087F57  _sprite_turnip_animations_lookup   sprite_turnip
     00087F5B  _sprite_turnip                     sprite_turnip
     00087F6E  _trigger_19_interact               trigger_19_interact
     00087FA5  _trigger_22_interact               trigger_22_interact

ASxxxx Linker V03.00 + NoICE + sdld,  page 66.
Hexadecimal  [32-Bits]

Area                                    Addr        Size        Decimal Bytes (Attributes)
--------------------------------        ----        ----        ------- ----- ------------
_HEADER_SIO0                        00000000    00000004 =           4. bytes (ABS,CON)

      Value  Global                              Global Defined In Module
      -----  --------------------------------   ------------------------
ASxxxx Linker V03.00 + NoICE + sdld,  page 67.
Hexadecimal  [32-Bits]

Area                                    Addr        Size        Decimal Bytes (Attributes)
--------------------------------        ----        ----        ------- ----- ------------
_HEADER_TIMER0                      00000000    00000004 =           4. bytes (ABS,CON)

      Value  Global                              Global Defined In Module
      -----  --------------------------------   ------------------------
ASxxxx Linker V03.00 + NoICE + sdld,  page 68.
Hexadecimal  [32-Bits]

Area                                    Addr        Size        Decimal Bytes (Attributes)
--------------------------------        ----        ----        ------- ----- ------------
_CODE_6                             00064000    00004000 =       16384. bytes (REL,CON)

      Value  Global                              Global Defined In Module
      -----  --------------------------------   ------------------------
     00064000  _projectiles_init                  projectiles
     00064040  _projectile_launch                 projectiles
     00064449  _scroll_init                       scroll
     00064473  _scroll_reset                      scroll
     00064493  _scroll_update                     scroll
     000645AA  _scroll_viewport                   scroll
     00064A58  _scroll_repaint                    scroll
     00064A68  _scroll_render_rows                scroll
     00064AF0  _scroll_queue_row                  scroll
     00064B15  _scroll_queue_col                  scroll
     00064B61  ___func_VM_GAMEBOY                 vm_gameboy
     00064B61  _vm_set_sprites_visible            vm_gameboy
     00064B78  _vm_input_wait                     vm_gameboy
     00064BA1  _vm_context_prepare                vm_gameboy
     00064BCC  _vm_input_attach                   vm_gameboy
     00064BE2  _vm_input_detach                   vm_gameboy
     00064BF6  _vm_input_get                      vm_gameboy
     00064C2A  _vm_fade                           vm_gameboy
     00064C5C  _vm_timer_prepare                  vm_gameboy
     00064C87  _vm_timer_set                      vm_gameboy
     00064CA2  _vm_timer_stop                     vm_gameboy
     00064CB6  _vm_timer_reset                    vm_gameboy
     00064CCD  _vm_get_tile_xy                    vm_gameboy
     00064DB6  _vm_replace_tile                   vm_gameboy
     00064E5F  _vm_poll                           vm_gameboy
     00064F31  _vm_set_sprite_mode                vm_gameboy
     00064F45  _vm_replace_tile_xy                vm_gameboy
     00065067  _vm_rumble                         vm_gameboy
     00065087  _vm_load_tiles                     vm_gameboy
     0006509C  _vm_load_tileset                   vm_gameboy
     000651B9  _actor_22_interact                 actor_22_interact
     000651D2  ___func_bg_bg_level1_144px_tiles   bg_bg_level1_144px_tileset
     000651D2  _bg_bg_level1_144px_tileset        bg_bg_level1_144px_tileset
     000657B4  ___func_bg_logo_tileset            bg_logo_tileset
     000657B4  _bg_logo_tileset                   bg_logo_tileset
     00065CB6  ___func_bg_titlescreen_tileset     bg_titlescreen_tileset
     00065CB6  _bg_titlescreen_tileset            bg_titlescreen_tileset
     00066851  _song_rulz_intro_0_Data            song_rulz_intro_0_Data
     00066866  _script_input_0                    script_input_0
     00066867  ___func_sprite_elephant            sprite_elephant
     00066867  _sprite_elephant_metasprite_0      sprite_elephant
     000668B3  _sprite_elephant_metasprite_1      sprite_elephant
     000668FF  _sprite_elephant_metasprite_2      sprite_elephant
     0006694B  _sprite_elephant_metasprite_3      sprite_elephant
     00066997  _sprite_elephant_metasprite_4      sprite_elephant
     000669E3  _sprite_elephant_metasprite_5      sprite_elephant
     00066A2F  _sprite_elephant_metasprite_6      sprite_elephant
     00066A7B  _sprite_elephant_metasprites       sprite_elephant
     00066A89  _sprite_elephant_animations        sprite_elephant
     00066A99  _sprite_elephant_animations_look   sprite_elephant
ASxxxx Linker V03.00 + NoICE + sdld,  page 69.
Hexadecimal  [32-Bits]

Area                                    Addr        Size        Decimal Bytes (Attributes)
--------------------------------        ----        ----        ------- ----- ------------
_CODE_6                             00064000    00004000 =       16384. bytes (REL,CON)

      Value  Global                              Global Defined In Module
      -----  --------------------------------   ------------------------
     00066A9B  _sprite_elephant                   sprite_elephant
     00066AAE  _trigger_18_interact               trigger_18_interact
     00066AB2  _adventure_init                    adventure
     00066AC7  _adventure_update                  adventure
     000671DE  _shmup_init                        shmup
     0006727A  _shmup_update                      shmup
     000678F9  _topdown_init                      topdown
     00067990  _topdown_update                    topdown

ASxxxx Linker V03.00 + NoICE + sdld,  page 70.
Hexadecimal  [32-Bits]

Area                                    Addr        Size        Decimal Bytes (Attributes)
--------------------------------        ----        ----        ------- ----- ------------
_CODE_2                             00024000    00004000 =       16384. bytes (REL,CON)

      Value  Global                              Global Defined In Module
      -----  --------------------------------   ------------------------
     00024000  ___func_VM_MATH                    vm_math
     00024000  _vm_sin_scale                      vm_math
     000240A2  _vm_cos_scale                      vm_math
     00024146  _actor_20_update                   actor_20_update
     0002415A  ___func_bg_bg_level1_144px_tilem   bg_bg_level1_144px_tilemap_a
     0002415A  _bg_bg_level1_144px_tilemap_attr   bg_bg_level1_144px_tilemap_a
     00025348  ___func_bg_bg_level1_144px_tilem   bg_bg_level1_144px_tilemap
     00025348  _bg_bg_level1_144px_tilemap        bg_bg_level1_144px_tilemap
     00026536  ___func_bg_bg_level2_tilemap_att   bg_bg_level2_tilemap_attr
     00026536  _bg_bg_level2_tilemap_attr         bg_bg_level2_tilemap_attr
     00026E12  ___func_bg_leaving_earth_tilemap   bg_leaving_earth_tilemap_att
     00026E12  _bg_leaving_earth_tilemap_attr     bg_leaving_earth_tilemap_att
ASxxxx Linker V03.00 + NoICE + sdld,  page 71.
Hexadecimal  [32-Bits]

Area                                    Addr        Size        Decimal Bytes (Attributes)
--------------------------------        ----        ----        ------- ----- ------------
_CODE_3                             00034000    00004000 =       16384. bytes (REL,CON)

      Value  Global                              Global Defined In Module
      -----  --------------------------------   ------------------------
     00034000  ___func_VM_MUSIC                   vm_music
     00034000  _vm_music_play                     vm_music
     00034044  _vm_music_stop                     vm_music
     00034066  _vm_music_mute                     vm_music
     0003409C  _vm_music_routine                  vm_music
     000340C3  _vm_music_setpos                   vm_music
     000340CD  _vm_sound_mastervol                vm_music
     000340D3  _vm_sfx_play                       vm_music
     00034146  _actor_36_update                   actor_36_update
     0003415A  ___func_bg_bg_level2_tilemap       bg_bg_level2_tilemap
     0003415A  _bg_bg_level2_tilemap              bg_bg_level2_tilemap
     00034A36  ___func_bg_leaving_earth_tilemap   bg_leaving_earth_tilemap
     00034A36  _bg_leaving_earth_tilemap          bg_leaving_earth_tilemap
     00035C24  ___func_scene_parallax_example_c   scene_parallax_example_colli
     00035C24  _scene_parallax_example_collisio   scene_parallax_example_colli
     00036E12  ___func_scene_space_battle_colli   scene_space_battle_collision
     00036E12  _scene_space_battle_collisions     scene_space_battle_collision

ASxxxx Linker V03.00 + NoICE + sdld,  page 72.
Hexadecimal  [32-Bits]

Area                                    Addr        Size        Decimal Bytes (Attributes)
--------------------------------        ----        ----        ------- ----- ------------
_CODE_4                             00044000    00004000 =       16384. bytes (REL,CON)

      Value  Global                              Global Defined In Module
      -----  --------------------------------   ------------------------
     00044000  ___func_VM_MAIN                    vm
     00044000  _vm_call                           vm
     00044042  _vm_ret                            vm
     000440A1  _vm_call_far                       vm
     0004411E  _vm_ret_far                        vm
     0004418D  _vm_push                           vm
     000441B7  _vm_pop                            vm
     000441F2  _vm_loop                           vm
     0004427F  _vm_jump                           vm
     0004428B  _wait_frames                       vm
     00044302  _vm_invoke                         vm
     0004442E  _vm_join                           vm
     00044487  _vm_terminate                      vm
     000444B4  _vm_if                             vm
     000445F8  _vm_if_const                       vm
     0004470C  _vm_push_value                     vm
     0004475E  _vm_push_value_ind                 vm
     000447D3  _vm_push_reference                 vm
     0004482A  _vm_reserve                        vm
     00044857  _vm_set                            vm
     000448B8  _vm_set_const                      vm
     000448E4  _vm_get_tlocal                     vm
     00044971  _vm_test_terminate                 vm
     0004497C  _vm_idle                           vm
     00044988  _vm_get_uint8                      vm
     000449BB  _vm_get_int8                       vm
     000449EF  _vm_get_int16                      vm
     00044A31  _vm_set_uint8                      vm
     00044A5D  _vm_set_int8                       vm
     00044A89  _vm_set_int16                      vm
     00044AC8  _vm_set_const_int8                 vm
     00044AD1  _vm_set_const_int16                vm
     00044ADD  _vm_init_rng                       vm
     00044B09  _vm_rand                           vm
     00044B8E  _vm_lock                           vm
     00044B9D  _vm_unlock                         vm
     00044BB0  _vm_raise                          vm
     00044BF2  _vm_set_indirect                   vm
     00044C6D  _vm_get_indirect                   vm
     00044CE8  _vm_poll_loaded                    vm
     00044D17  _vm_memset                         vm
     00044D5C  _vm_memcpy                         vm
     00044DDC  _script_runner_init                vm
     00044E98  _script_execute                    vm
     00044FDD  _script_terminate                  vm
     00045043  _script_detach_hthread             vm
     00045080  ___func_font_gbs_mono              font_gbs_mono
     00045E30  _font_gbs_mono                     font_gbs_mono
     00046B09  _song_rulz_lightmood_0_Data        song_rulz_lightmood_0_Data
     00046B1E  ___func_scene_9_actors             scene_9_actors
ASxxxx Linker V03.00 + NoICE + sdld,  page 73.
Hexadecimal  [32-Bits]

Area                                    Addr        Size        Decimal Bytes (Attributes)
--------------------------------        ----        ----        ------- ----- ------------
_CODE_4                             00044000    00004000 =       16384. bytes (REL,CON)

      Value  Global                              Global Defined In Module
      -----  --------------------------------   ------------------------
     00046B1E  _scene_9_actors                    scene_9_actors
     00046EC6  _platform_init                     platform
     0004707D  _platform_update                   platform

ASxxxx Linker V03.00 + NoICE + sdld,  page 74.
Hexadecimal  [32-Bits]

Area                                    Addr        Size        Decimal Bytes (Attributes)
--------------------------------        ----        ----        ------- ----- ------------
_HEADER_LCD0                        00000000    00000003 =           3. bytes (ABS,CON)

      Value  Global                              Global Defined In Module
      -----  --------------------------------   ------------------------
ASxxxx Linker V03.00 + NoICE + sdld,  page 75.

Files Linked                              [ module(s) ]

C:\Users\amish\AppData\Local\Temp/_gbstools/gbdk/lib/small/asxxxx/gb/crt0.o
                                          [ Runtime ]
C:/Users/amish/AppData/Local/Temp/_gbsbuild/obj/___sdcc_bcall_ehl.rel
                                          [  ]
C:/Users/amish/AppData/Local/Temp/_gbsbuild/obj/absolute.rel
                                          [ absolute ]
C:/Users/amish/AppData/Local/Temp/_gbsbuild/obj/actor.rel
                                          [ actor ]
C:/Users/amish/AppData/Local/Temp/_gbsbuild/obj/bankdata.rel
                                          [ bankdata ]
C:/Users/amish/AppData/Local/Temp/_gbsbuild/obj/bootstrap.rel
                                          [  ]
C:/Users/amish/AppData/Local/Temp/_gbsbuild/obj/camera.rel
                                          [ camera ]
C:/Users/amish/AppData/Local/Temp/_gbsbuild/obj/core.rel
                                          [ core ]
C:/Users/amish/AppData/Local/Temp/_gbsbuild/obj/crash_handler.rel
                                          [  ]
C:/Users/amish/AppData/Local/Temp/_gbsbuild/obj/data_manager.rel
                                          [ data_manager ]
C:/Users/amish/AppData/Local/Temp/_gbsbuild/obj/events.rel
                                          [ events ]
C:/Users/amish/AppData/Local/Temp/_gbsbuild/obj/fade_manager.rel
                                          [ fade_manager ]
C:/Users/amish/AppData/Local/Temp/_gbsbuild/obj/flasher_s.rel
                                          [  ]
C:/Users/amish/AppData/Local/Temp/_gbsbuild/obj/flasher.rel
                                          [ flasher ]
C:/Users/amish/AppData/Local/Temp/_gbsbuild/obj/game_time.rel
                                          [ game_time ]
C:/Users/amish/AppData/Local/Temp/_gbsbuild/obj/gbprinter.rel
                                          [ gbprinter ]
C:/Users/amish/AppData/Local/Temp/_gbsbuild/obj/input.rel
                                          [ input ]
C:/Users/amish/AppData/Local/Temp/_gbsbuild/obj/interrupt_sio.rel
                                          [  ]
C:/Users/amish/AppData/Local/Temp/_gbsbuild/obj/interrupt_timer.rel
                                          [  ]
C:/Users/amish/AppData/Local/Temp/_gbsbuild/obj/interrupts.rel
                                          [ interrupts ]
C:/Users/amish/AppData/Local/Temp/_gbsbuild/obj/load_save.rel
                                          [ load_save ]
C:/Users/amish/AppData/Local/Temp/_gbsbuild/obj/math.rel
                                          [ math ]
C:/Users/amish/AppData/Local/Temp/_gbsbuild/obj/music_manager.rel
                                          [ music_manager ]
C:/Users/amish/AppData/Local/Temp/_gbsbuild/obj/palette.rel
                                          [ palette ]
C:/Users/amish/AppData/Local/Temp/_gbsbuild/obj/parallax.rel
                                          [ parallax ]
C:/Users/amish/AppData/Local/Temp/_gbsbuild/obj/projectiles.rel
                                          [ projectiles ]
C:/Users/amish/AppData/Local/Temp/_gbsbuild/obj/scroll_a.rel
                                          [  ]
C:/Users/amish/AppData/Local/Temp/_gbsbuild/obj/scroll.rel
                                          [ scroll ]
C:/Users/amish/AppData/Local/Temp/_gbsbuild/obj/set_tile_submap.rel
                                          [  ]
C:/Users/amish/AppData/Local/Temp/_gbsbuild/obj/sfx_player.rel
                                          [ sfx_player ]
C:/Users/amish/AppData/Local/Temp/_gbsbuild/obj/sgb_border.rel
                                          [ sgb_border ]
C:/Users/amish/AppData/Local/Temp/_gbsbuild/obj/sio.rel
                                          [ sio ]
C:/Users/amish/AppData/Local/Temp/_gbsbuild/obj/states_caller.rel
                                          [  ]
C:/Users/amish/AppData/Local/Temp/_gbsbuild/obj/system.rel
                                          [ system ]
C:/Users/amish/AppData/Local/Temp/_gbsbuild/obj/trigger.rel
                                          [ trigger ]
C:/Users/amish/AppData/Local/Temp/_gbsbuild/obj/ui_a.rel
                                          [  ]
C:/Users/amish/AppData/Local/Temp/_gbsbuild/obj/ui.rel
                                          [ ui ]
C:/Users/amish/AppData/Local/Temp/_gbsbuild/obj/vm_actor.rel
                                          [ vm_actor ]
C:/Users/amish/AppData/Local/Temp/_gbsbuild/obj/vm_camera.rel
                                          [ vm_camera ]
C:/Users/amish/AppData/Local/Temp/_gbsbuild/obj/vm_gameboy.rel
                                          [ vm_gameboy ]
C:/Users/amish/AppData/Local/Temp/_gbsbuild/obj/vm_gbprinter.rel
                                          [ vm_gbprinter ]
C:/Users/amish/AppData/Local/Temp/_gbsbuild/obj/vm_instructions.rel
                                          [ vm_instructions ]
C:/Users/amish/AppData/Local/Temp/_gbsbuild/obj/vm_load_save.rel
                                          [ vm_load_save ]
C:/Users/amish/AppData/Local/Temp/_gbsbuild/obj/vm_math.rel
                                          [ vm_math ]
C:/Users/amish/AppData/Local/Temp/_gbsbuild/obj/vm_music.rel
                                          [ vm_music ]
C:/Users/amish/AppData/Local/Temp/_gbsbuild/obj/vm_palette.rel
                                          [ vm_palette ]
C:/Users/amish/AppData/Local/Temp/_gbsbuild/obj/vm_projectiles.rel
                                          [ vm_projectiles ]
C:/Users/amish/AppData/Local/Temp/_gbsbuild/obj/vm_rtc.rel
                                          [ vm_rtc ]
C:/Users/amish/AppData/Local/Temp/_gbsbuild/obj/vm_scene.rel
                                          [ vm_scene ]
C:/Users/amish/AppData/Local/Temp/_gbsbuild/obj/vm_sgb.rel
                                          [ vm_sgb ]
C:/Users/amish/AppData/Local/Temp/_gbsbuild/obj/vm_sio.rel
                                          [ vm_sio ]
C:/Users/amish/AppData/Local/Temp/_gbsbuild/obj/vm_ui_a.rel
                                          [ vm_ui_a ]
C:/Users/amish/AppData/Local/Temp/_gbsbuild/obj/vm_ui.rel
                                          [ vm_ui ]
C:/Users/amish/AppData/Local/Temp/_gbsbuild/obj/vm.rel
                                          [ vm ]
C:/Users/amish/AppData/Local/Temp/_gbsbuild/obj/actor_0_interact.rel
                                          [ actor_0_interact ]
C:/Users/amish/AppData/Local/Temp/_gbsbuild/obj/actor_0_update.rel
                                          [ actor_0_update ]
C:/Users/amish/AppData/Local/Temp/_gbsbuild/obj/actor_1_interact.rel
                                          [ actor_1_interact ]
C:/Users/amish/AppData/Local/Temp/_gbsbuild/obj/actor_10_interact.rel
                                          [ actor_10_interact ]
C:/Users/amish/AppData/Local/Temp/_gbsbuild/obj/actor_10_update.rel
                                          [ actor_10_update ]
C:/Users/amish/AppData/Local/Temp/_gbsbuild/obj/actor_11_interact.rel
                                          [ actor_11_interact ]
C:/Users/amish/AppData/Local/Temp/_gbsbuild/obj/actor_11_update.rel
                                          [ actor_11_update ]
C:/Users/amish/AppData/Local/Temp/_gbsbuild/obj/actor_12_interact.rel
                                          [ actor_12_interact ]
C:/Users/amish/AppData/Local/Temp/_gbsbuild/obj/actor_12_update.rel
                                          [ actor_12_update ]
C:/Users/amish/AppData/Local/Temp/_gbsbuild/obj/actor_13_interact.rel
                                          [ actor_13_interact ]
C:/Users/amish/AppData/Local/Temp/_gbsbuild/obj/actor_13_update.rel
                                          [ actor_13_update ]
C:/Users/amish/AppData/Local/Temp/_gbsbuild/obj/actor_14_interact.rel
                                          [ actor_14_interact ]
C:/Users/amish/AppData/Local/Temp/_gbsbuild/obj/actor_14_update.rel
                                          [ actor_14_update ]
C:/Users/amish/AppData/Local/Temp/_gbsbuild/obj/actor_15_interact.rel
                                          [ actor_15_interact ]
C:/Users/amish/AppData/Local/Temp/_gbsbuild/obj/actor_15_update.rel
                                          [ actor_15_update ]
C:/Users/amish/AppData/Local/Temp/_gbsbuild/obj/actor_16_interact.rel
                                          [ actor_16_interact ]
C:/Users/amish/AppData/Local/Temp/_gbsbuild/obj/actor_16_update.rel
                                          [ actor_16_update ]
C:/Users/amish/AppData/Local/Temp/_gbsbuild/obj/actor_17_interact.rel
                                          [ actor_17_interact ]
C:/Users/amish/AppData/Local/Temp/_gbsbuild/obj/actor_17_update.rel
                                          [ actor_17_update ]
C:/Users/amish/AppData/Local/Temp/_gbsbuild/obj/actor_19_interact.rel
                                          [ actor_19_interact ]
C:/Users/amish/AppData/Local/Temp/_gbsbuild/obj/actor_20_update.rel
                                          [ actor_20_update ]
C:/Users/amish/AppData/Local/Temp/_gbsbuild/obj/actor_21_update.rel
                                          [ actor_21_update ]
C:/Users/amish/AppData/Local/Temp/_gbsbuild/obj/actor_22_interact.rel
                                          [ actor_22_interact ]
C:/Users/amish/AppData/Local/Temp/_gbsbuild/obj/actor_22_update.rel
                                          [ actor_22_update ]
C:/Users/amish/AppData/Local/Temp/_gbsbuild/obj/actor_23_update.rel
                                          [ actor_23_update ]
C:/Users/amish/AppData/Local/Temp/_gbsbuild/obj/actor_24_update.rel
                                          [ actor_24_update ]
C:/Users/amish/AppData/Local/Temp/_gbsbuild/obj/actor_25_update.rel
                                          [ actor_25_update ]
C:/Users/amish/AppData/Local/Temp/_gbsbuild/obj/actor_26_interact.rel
                                          [ actor_26_interact ]
C:/Users/amish/AppData/Local/Temp/_gbsbuild/obj/actor_26_update.rel
                                          [ actor_26_update ]
C:/Users/amish/AppData/Local/Temp/_gbsbuild/obj/actor_27_interact.rel
                                          [ actor_27_interact ]
C:/Users/amish/AppData/Local/Temp/_gbsbuild/obj/actor_27_update.rel
                                          [ actor_27_update ]
C:/Users/amish/AppData/Local/Temp/_gbsbuild/obj/actor_28_interact.rel
                                          [ actor_28_interact ]
C:/Users/amish/AppData/Local/Temp/_gbsbuild/obj/actor_28_update.rel
                                          [ actor_28_update ]
C:/Users/amish/AppData/Local/Temp/_gbsbuild/obj/actor_29_interact.rel
                                          [ actor_29_interact ]
C:/Users/amish/AppData/Local/Temp/_gbsbuild/obj/actor_29_update.rel
                                          [ actor_29_update ]
C:/Users/amish/AppData/Local/Temp/_gbsbuild/obj/actor_3_interact.rel
                                          [ actor_3_interact ]
C:/Users/amish/AppData/Local/Temp/_gbsbuild/obj/actor_3_update.rel
                                          [ actor_3_update ]
C:/Users/amish/AppData/Local/Temp/_gbsbuild/obj/actor_30_interact.rel
                                          [ actor_30_interact ]
C:/Users/amish/AppData/Local/Temp/_gbsbuild/obj/actor_31_interact.rel
                                          [ actor_31_interact ]
C:/Users/amish/AppData/Local/Temp/_gbsbuild/obj/actor_31_update.rel
                                          [ actor_31_update ]
C:/Users/amish/AppData/Local/Temp/_gbsbuild/obj/actor_32_interact.rel
                                          [ actor_32_interact ]
C:/Users/amish/AppData/Local/Temp/_gbsbuild/obj/actor_33_update.rel
                                          [ actor_33_update ]
C:/Users/amish/AppData/Local/Temp/_gbsbuild/obj/actor_34_interact.rel
                                          [ actor_34_interact ]
C:/Users/amish/AppData/Local/Temp/_gbsbuild/obj/actor_34_update.rel
                                          [ actor_34_update ]
C:/Users/amish/AppData/Local/Temp/_gbsbuild/obj/actor_35_interact.rel
                                          [ actor_35_interact ]
C:/Users/amish/AppData/Local/Temp/_gbsbuild/obj/actor_35_update.rel
                                          [ actor_35_update ]
C:/Users/amish/AppData/Local/Temp/_gbsbuild/obj/actor_36_update.rel
                                          [ actor_36_update ]
C:/Users/amish/AppData/Local/Temp/_gbsbuild/obj/actor_38_interact.rel
                                          [ actor_38_interact ]
C:/Users/amish/AppData/Local/Temp/_gbsbuild/obj/actor_38_update.rel
                                          [ actor_38_update ]
C:/Users/amish/AppData/Local/Temp/_gbsbuild/obj/actor_39_interact.rel
                                          [ actor_39_interact ]
C:/Users/amish/AppData/Local/Temp/_gbsbuild/obj/actor_39_update.rel
                                          [ actor_39_update ]
C:/Users/amish/AppData/Local/Temp/_gbsbuild/obj/actor_4_interact.rel
                                          [ actor_4_interact ]
C:/Users/amish/AppData/Local/Temp/_gbsbuild/obj/actor_4_update.rel
                                          [ actor_4_update ]
C:/Users/amish/AppData/Local/Temp/_gbsbuild/obj/actor_40_interact.rel
                                          [ actor_40_interact ]
C:/Users/amish/AppData/Local/Temp/_gbsbuild/obj/actor_40_update.rel
                                          [ actor_40_update ]
C:/Users/amish/AppData/Local/Temp/_gbsbuild/obj/actor_41_interact.rel
                                          [ actor_41_interact ]
C:/Users/amish/AppData/Local/Temp/_gbsbuild/obj/actor_43_interact.rel
                                          [ actor_43_interact ]
C:/Users/amish/AppData/Local/Temp/_gbsbuild/obj/actor_43_update.rel
                                          [ actor_43_update ]
C:/Users/amish/AppData/Local/Temp/_gbsbuild/obj/actor_44_interact.rel
                                          [ actor_44_interact ]
C:/Users/amish/AppData/Local/Temp/_gbsbuild/obj/actor_44_update.rel
                                          [ actor_44_update ]
C:/Users/amish/AppData/Local/Temp/_gbsbuild/obj/actor_45_interact.rel
                                          [ actor_45_interact ]
C:/Users/amish/AppData/Local/Temp/_gbsbuild/obj/actor_45_update.rel
                                          [ actor_45_update ]
C:/Users/amish/AppData/Local/Temp/_gbsbuild/obj/actor_46_interact.rel
                                          [ actor_46_interact ]
C:/Users/amish/AppData/Local/Temp/_gbsbuild/obj/actor_47_interact.rel
                                          [ actor_47_interact ]
C:/Users/amish/AppData/Local/Temp/_gbsbuild/obj/actor_47_update.rel
                                          [ actor_47_update ]
C:/Users/amish/AppData/Local/Temp/_gbsbuild/obj/actor_48_interact.rel
                                          [ actor_48_interact ]
C:/Users/amish/AppData/Local/Temp/_gbsbuild/obj/actor_48_update.rel
                                          [ actor_48_update ]
C:/Users/amish/AppData/Local/Temp/_gbsbuild/obj/actor_49_interact.rel
                                          [ actor_49_interact ]
C:/Users/amish/AppData/Local/Temp/_gbsbuild/obj/actor_5_interact.rel
                                          [ actor_5_interact ]
C:/Users/amish/AppData/Local/Temp/_gbsbuild/obj/actor_5_update.rel
                                          [ actor_5_update ]
C:/Users/amish/AppData/Local/Temp/_gbsbuild/obj/actor_51_interact.rel
                                          [ actor_51_interact ]
C:/Users/amish/AppData/Local/Temp/_gbsbuild/obj/actor_51_update.rel
                                          [ actor_51_update ]
C:/Users/amish/AppData/Local/Temp/_gbsbuild/obj/actor_52_interact.rel
                                          [ actor_52_interact ]
C:/Users/amish/AppData/Local/Temp/_gbsbuild/obj/actor_52_update.rel
                                          [ actor_52_update ]
C:/Users/amish/AppData/Local/Temp/_gbsbuild/obj/actor_53_interact.rel
                                          [ actor_53_interact ]
C:/Users/amish/AppData/Local/Temp/_gbsbuild/obj/actor_53_update.rel
                                          [ actor_53_update ]
C:/Users/amish/AppData/Local/Temp/_gbsbuild/obj/actor_55_interact.rel
                                          [ actor_55_interact ]
C:/Users/amish/AppData/Local/Temp/_gbsbuild/obj/actor_6_interact.rel
                                          [ actor_6_interact ]
C:/Users/amish/AppData/Local/Temp/_gbsbuild/obj/actor_6_update.rel
                                          [ actor_6_update ]
C:/Users/amish/AppData/Local/Temp/_gbsbuild/obj/actor_7_interact.rel
                                          [ actor_7_interact ]
C:/Users/amish/AppData/Local/Temp/_gbsbuild/obj/actor_7_update.rel
                                          [ actor_7_update ]
C:/Users/amish/AppData/Local/Temp/_gbsbuild/obj/actor_8_interact.rel
                                          [ actor_8_interact ]
C:/Users/amish/AppData/Local/Temp/_gbsbuild/obj/actor_8_update.rel
                                          [ actor_8_update ]
C:/Users/amish/AppData/Local/Temp/_gbsbuild/obj/actor_9_interact.rel
                                          [ actor_9_interact ]
C:/Users/amish/AppData/Local/Temp/_gbsbuild/obj/actor_9_update.rel
                                          [ actor_9_update ]
C:/Users/amish/AppData/Local/Temp/_gbsbuild/obj/actor_sign_post_5_interact.rel
                                          [ actor_sign_post_5_interact ]
C:/Users/amish/AppData/Local/Temp/_gbsbuild/obj/avatar_font_0.rel
                                          [ avatar_font_0 ]
C:/Users/amish/AppData/Local/Temp/_gbsbuild/obj/bg_bg_level1_144px_tilemap_attr.rel
                                          [ bg_bg_level1_144px_tilemap_attr ]
C:/Users/amish/AppData/Local/Temp/_gbsbuild/obj/bg_bg_level1_144px_tilemap.rel
                                          [ bg_bg_level1_144px_tilemap ]
C:/Users/amish/AppData/Local/Temp/_gbsbuild/obj/bg_bg_level1_144px_tileset.rel
                                          [ bg_bg_level1_144px_tileset ]
C:/Users/amish/AppData/Local/Temp/_gbsbuild/obj/bg_bg_level1_144px.rel
                                          [ bg_bg_level1_144px ]
C:/Users/amish/AppData/Local/Temp/_gbsbuild/obj/bg_bg_level2_tilemap_attr.rel
                                          [ bg_bg_level2_tilemap_attr ]
C:/Users/amish/AppData/Local/Temp/_gbsbuild/obj/bg_bg_level2_tilemap.rel
                                          [ bg_bg_level2_tilemap ]
C:/Users/amish/AppData/Local/Temp/_gbsbuild/obj/bg_bg_level2_tileset.rel
                                          [ bg_bg_level2_tileset ]
C:/Users/amish/AppData/Local/Temp/_gbsbuild/obj/bg_bg_level2.rel
                                          [ bg_bg_level2 ]
C:/Users/amish/AppData/Local/Temp/_gbsbuild/obj/bg_leaving_earth_tilemap_attr.rel
                                          [ bg_leaving_earth_tilemap_attr ]
C:/Users/amish/AppData/Local/Temp/_gbsbuild/obj/bg_leaving_earth_tilemap.rel
                                          [ bg_leaving_earth_tilemap ]
C:/Users/amish/AppData/Local/Temp/_gbsbuild/obj/bg_leaving_earth_tileset.rel
                                          [ bg_leaving_earth_tileset ]
C:/Users/amish/AppData/Local/Temp/_gbsbuild/obj/bg_leaving_earth.rel
                                          [ bg_leaving_earth ]
C:/Users/amish/AppData/Local/Temp/_gbsbuild/obj/bg_logo_tilemap_attr.rel
                                          [ bg_logo_tilemap_attr ]
C:/Users/amish/AppData/Local/Temp/_gbsbuild/obj/bg_logo_tilemap.rel
                                          [ bg_logo_tilemap ]
C:/Users/amish/AppData/Local/Temp/_gbsbuild/obj/bg_logo_tileset.rel
                                          [ bg_logo_tileset ]
C:/Users/amish/AppData/Local/Temp/_gbsbuild/obj/bg_logo.rel
                                          [ bg_logo ]
C:/Users/amish/AppData/Local/Temp/_gbsbuild/obj/bg_menu_page1_tilemap.rel
                                          [ bg_menu_page1_tilemap ]
C:/Users/amish/AppData/Local/Temp/_gbsbuild/obj/bg_menu_page1_tileset.rel
                                          [ bg_menu_page1_tileset ]
C:/Users/amish/AppData/Local/Temp/_gbsbuild/obj/bg_menu_page1.rel
                                          [ bg_menu_page1 ]
C:/Users/amish/AppData/Local/Temp/_gbsbuild/obj/bg_menu_page2_tilemap.rel
                                          [ bg_menu_page2_tilemap ]
C:/Users/amish/AppData/Local/Temp/_gbsbuild/obj/bg_menu_page2_tileset.rel
                                          [ bg_menu_page2_tileset ]
C:/Users/amish/AppData/Local/Temp/_gbsbuild/obj/bg_menu_page2.rel
                                          [ bg_menu_page2 ]
C:/Users/amish/AppData/Local/Temp/_gbsbuild/obj/bg_room_tilemap_attr.rel
                                          [ bg_room_tilemap_attr ]
C:/Users/amish/AppData/Local/Temp/_gbsbuild/obj/bg_room_tilemap.rel
                                          [ bg_room_tilemap ]
C:/Users/amish/AppData/Local/Temp/_gbsbuild/obj/bg_room_tileset.rel
                                          [ bg_room_tileset ]
C:/Users/amish/AppData/Local/Temp/_gbsbuild/obj/bg_room.rel
                                          [ bg_room ]
C:/Users/amish/AppData/Local/Temp/_gbsbuild/obj/bg_titlescreen_tilemap_attr.rel
                                          [ bg_titlescreen_tilemap_attr ]
C:/Users/amish/AppData/Local/Temp/_gbsbuild/obj/bg_titlescreen_tilemap.rel
                                          [ bg_titlescreen_tilemap ]
C:/Users/amish/AppData/Local/Temp/_gbsbuild/obj/bg_titlescreen_tileset.rel
                                          [ bg_titlescreen_tileset ]
C:/Users/amish/AppData/Local/Temp/_gbsbuild/obj/bg_titlescreen.rel
                                          [ bg_titlescreen ]
C:/Users/amish/AppData/Local/Temp/_gbsbuild/obj/cursor_image.rel
                                          [ cursor_image ]
C:/Users/amish/AppData/Local/Temp/_gbsbuild/obj/font_gbs_mono.rel
                                          [ font_gbs_mono ]
C:/Users/amish/AppData/Local/Temp/_gbsbuild/obj/frame_image.rel
                                          [ frame_image ]
C:/Users/amish/AppData/Local/Temp/_gbsbuild/obj/game_signature.rel
                                          [ game_signature ]
C:/Users/amish/AppData/Local/Temp/_gbsbuild/obj/song_red_test_Data.rel
                                          [ song_red_test_Data ]
C:/Users/amish/AppData/Local/Temp/_gbsbuild/obj/song_rulz_fastpacespeedrace_0_Data.rel
                                          [ song_rulz_fastpacespeedrace_0_Da ]
C:/Users/amish/AppData/Local/Temp/_gbsbuild/obj/song_rulz_intro_0_Data.rel
                                          [ song_rulz_intro_0_Data ]
C:/Users/amish/AppData/Local/Temp/_gbsbuild/obj/song_rulz_lightmood_0_Data.rel
                                          [ song_rulz_lightmood_0_Data ]
C:/Users/amish/AppData/Local/Temp/_gbsbuild/obj/song_rulz_pause_underground_0_Data.rel
                                          [ song_rulz_pause_underground_0_Da ]
C:/Users/amish/AppData/Local/Temp/_gbsbuild/obj/palette_0.rel
                                          [ palette_0 ]
C:/Users/amish/AppData/Local/Temp/_gbsbuild/obj/palette_1.rel
                                          [ palette_1 ]
C:/Users/amish/AppData/Local/Temp/_gbsbuild/obj/palette_2.rel
                                          [ palette_2 ]
C:/Users/amish/AppData/Local/Temp/_gbsbuild/obj/palette_3.rel
                                          [ palette_3 ]
C:/Users/amish/AppData/Local/Temp/_gbsbuild/obj/palette_4.rel
                                          [ palette_4 ]
C:/Users/amish/AppData/Local/Temp/_gbsbuild/obj/palette_5.rel
                                          [ palette_5 ]
C:/Users/amish/AppData/Local/Temp/_gbsbuild/obj/palette_6.rel
                                          [ palette_6 ]
C:/Users/amish/AppData/Local/Temp/_gbsbuild/obj/palette_7.rel
                                          [ palette_7 ]
C:/Users/amish/AppData/Local/Temp/_gbsbuild/obj/scene_9_actors.rel
                                          [ scene_9_actors ]
C:/Users/amish/AppData/Local/Temp/_gbsbuild/obj/scene_9_collisions.rel
                                          [ scene_9_collisions ]
C:/Users/amish/AppData/Local/Temp/_gbsbuild/obj/scene_9_init.rel
                                          [ scene_9_init ]
C:/Users/amish/AppData/Local/Temp/_gbsbuild/obj/scene_9_sprites.rel
                                          [ scene_9_sprites ]
C:/Users/amish/AppData/Local/Temp/_gbsbuild/obj/scene_9_triggers.rel
                                          [ scene_9_triggers ]
C:/Users/amish/AppData/Local/Temp/_gbsbuild/obj/scene_9.rel
                                          [ scene_9 ]
C:/Users/amish/AppData/Local/Temp/_gbsbuild/obj/scene_logo_collisions.rel
                                          [ scene_logo_collisions ]
C:/Users/amish/AppData/Local/Temp/_gbsbuild/obj/scene_logo_init.rel
                                          [ scene_logo_init ]
C:/Users/amish/AppData/Local/Temp/_gbsbuild/obj/scene_logo.rel
                                          [ scene_logo ]
C:/Users/amish/AppData/Local/Temp/_gbsbuild/obj/scene_menu_page_1_actors.rel
                                          [ scene_menu_page_1_actors ]
C:/Users/amish/AppData/Local/Temp/_gbsbuild/obj/scene_menu_page_1_collisions.rel
                                          [ scene_menu_page_1_collisions ]
C:/Users/amish/AppData/Local/Temp/_gbsbuild/obj/scene_menu_page_1_init.rel
                                          [ scene_menu_page_1_init ]
C:/Users/amish/AppData/Local/Temp/_gbsbuild/obj/scene_menu_page_1_sprites.rel
                                          [ scene_menu_page_1_sprites ]
C:/Users/amish/AppData/Local/Temp/_gbsbuild/obj/scene_menu_page_1.rel
                                          [ scene_menu_page_1 ]
C:/Users/amish/AppData/Local/Temp/_gbsbuild/obj/scene_menu_page_2_actors.rel
                                          [ scene_menu_page_2_actors ]
C:/Users/amish/AppData/Local/Temp/_gbsbuild/obj/scene_menu_page_2_collisions.rel
                                          [ scene_menu_page_2_collisions ]
C:/Users/amish/AppData/Local/Temp/_gbsbuild/obj/scene_menu_page_2_init.rel
                                          [ scene_menu_page_2_init ]
C:/Users/amish/AppData/Local/Temp/_gbsbuild/obj/scene_menu_page_2_sprites.rel
                                          [ scene_menu_page_2_sprites ]
C:/Users/amish/AppData/Local/Temp/_gbsbuild/obj/scene_menu_page_2.rel
                                          [ scene_menu_page_2 ]
C:/Users/amish/AppData/Local/Temp/_gbsbuild/obj/scene_parallax_example_actors.rel
                                          [ scene_parallax_example_actors ]
C:/Users/amish/AppData/Local/Temp/_gbsbuild/obj/scene_parallax_example_collisions.rel
                                          [ scene_parallax_example_collision ]
C:/Users/amish/AppData/Local/Temp/_gbsbuild/obj/scene_parallax_example_init.rel
                                          [ scene_parallax_example_init ]
C:/Users/amish/AppData/Local/Temp/_gbsbuild/obj/scene_parallax_example_sprites.rel
                                          [ scene_parallax_example_sprites ]
C:/Users/amish/AppData/Local/Temp/_gbsbuild/obj/scene_parallax_example_triggers.rel
                                          [ scene_parallax_example_triggers ]
C:/Users/amish/AppData/Local/Temp/_gbsbuild/obj/scene_parallax_example.rel
                                          [ scene_parallax_example ]
C:/Users/amish/AppData/Local/Temp/_gbsbuild/obj/scene_player_s_house_collisions.rel
                                          [ scene_player_s_house_collisions ]
C:/Users/amish/AppData/Local/Temp/_gbsbuild/obj/scene_player_s_house_init.rel
                                          [ scene_player_s_house_init ]
C:/Users/amish/AppData/Local/Temp/_gbsbuild/obj/scene_player_s_house_triggers.rel
                                          [ scene_player_s_house_triggers ]
C:/Users/amish/AppData/Local/Temp/_gbsbuild/obj/scene_player_s_house.rel
                                          [ scene_player_s_house ]
C:/Users/amish/AppData/Local/Temp/_gbsbuild/obj/scene_space_battle_actors.rel
                                          [ scene_space_battle_actors ]
C:/Users/amish/AppData/Local/Temp/_gbsbuild/obj/scene_space_battle_collisions.rel
                                          [ scene_space_battle_collisions ]
C:/Users/amish/AppData/Local/Temp/_gbsbuild/obj/scene_space_battle_init.rel
                                          [ scene_space_battle_init ]
C:/Users/amish/AppData/Local/Temp/_gbsbuild/obj/scene_space_battle_p_hit1.rel
                                          [ scene_space_battle_p_hit1 ]
C:/Users/amish/AppData/Local/Temp/_gbsbuild/obj/scene_space_battle_projectiles.rel
                                          [ scene_space_battle_projectiles ]
C:/Users/amish/AppData/Local/Temp/_gbsbuild/obj/scene_space_battle_sprites.rel
                                          [ scene_space_battle_sprites ]
C:/Users/amish/AppData/Local/Temp/_gbsbuild/obj/scene_space_battle_triggers.rel
                                          [ scene_space_battle_triggers ]
C:/Users/amish/AppData/Local/Temp/_gbsbuild/obj/scene_space_battle.rel
                                          [ scene_space_battle ]
C:/Users/amish/AppData/Local/Temp/_gbsbuild/obj/scene_title_screen_collisions.rel
                                          [ scene_title_screen_collisions ]
C:/Users/amish/AppData/Local/Temp/_gbsbuild/obj/scene_title_screen_init.rel
                                          [ scene_title_screen_init ]
C:/Users/amish/AppData/Local/Temp/_gbsbuild/obj/scene_title_screen.rel
                                          [ scene_title_screen ]
C:/Users/amish/AppData/Local/Temp/_gbsbuild/obj/script_12.rel
                                          [ script_12 ]
C:/Users/amish/AppData/Local/Temp/_gbsbuild/obj/script_15.rel
                                          [ script_15 ]
C:/Users/amish/AppData/Local/Temp/_gbsbuild/obj/script_enemy_ship_destroy.rel
                                          [ script_enemy_ship_destroy ]
C:/Users/amish/AppData/Local/Temp/_gbsbuild/obj/script_enemy_ship_hit_playe.rel
                                          [ script_enemy_ship_hit_playe ]
C:/Users/amish/AppData/Local/Temp/_gbsbuild/obj/script_enemy_ship_movement__0.rel
                                          [ script_enemy_ship_movement__0 ]
C:/Users/amish/AppData/Local/Temp/_gbsbuild/obj/script_enemy_ship_movement__1.rel
                                          [ script_enemy_ship_movement__1 ]
C:/Users/amish/AppData/Local/Temp/_gbsbuild/obj/script_enemy_ship_movement__2.rel
                                          [ script_enemy_ship_movement__2 ]
C:/Users/amish/AppData/Local/Temp/_gbsbuild/obj/script_enemy_ship_movement_.rel
                                          [ script_enemy_ship_movement_ ]
C:/Users/amish/AppData/Local/Temp/_gbsbuild/obj/script_engine_init.rel
                                          [  ]
C:/Users/amish/AppData/Local/Temp/_gbsbuild/obj/script_init_menu.rel
                                          [ script_init_menu ]
C:/Users/amish/AppData/Local/Temp/_gbsbuild/obj/script_init_weapons.rel
                                          [ script_init_weapons ]
C:/Users/amish/AppData/Local/Temp/_gbsbuild/obj/script_input_0.rel
                                          [ script_input_0 ]
C:/Users/amish/AppData/Local/Temp/_gbsbuild/obj/script_input_1.rel
                                          [ script_input_1 ]
C:/Users/amish/AppData/Local/Temp/_gbsbuild/obj/script_input_2.rel
                                          [ script_input_2 ]
C:/Users/amish/AppData/Local/Temp/_gbsbuild/obj/script_input_3.rel
                                          [ script_input_3 ]
C:/Users/amish/AppData/Local/Temp/_gbsbuild/obj/script_input_4.rel
                                          [ script_input_4 ]
C:/Users/amish/AppData/Local/Temp/_gbsbuild/obj/script_input_5.rel
                                          [ script_input_5 ]
C:/Users/amish/AppData/Local/Temp/_gbsbuild/obj/script_turnip_collisions.rel
                                          [ script_turnip_collisions ]
C:/Users/amish/AppData/Local/Temp/_gbsbuild/obj/script_turnip_init.rel
                                          [ script_turnip_init ]
C:/Users/amish/AppData/Local/Temp/_gbsbuild/obj/script_turnip_movement.rel
                                          [ script_turnip_movement ]
C:/Users/amish/AppData/Local/Temp/_gbsbuild/obj/sound_legacy_0.rel
                                          [ sound_legacy_0 ]
C:/Users/amish/AppData/Local/Temp/_gbsbuild/obj/sprite_bullet_left_tileset.rel
                                          [ sprite_bullet_left_tileset ]
C:/Users/amish/AppData/Local/Temp/_gbsbuild/obj/sprite_bullet_left.rel
                                          [ sprite_bullet_left ]
C:/Users/amish/AppData/Local/Temp/_gbsbuild/obj/sprite_bullet_right_tileset.rel
                                          [ sprite_bullet_right_tileset ]
C:/Users/amish/AppData/Local/Temp/_gbsbuild/obj/sprite_bullet_right.rel
                                          [ sprite_bullet_right ]
C:/Users/amish/AppData/Local/Temp/_gbsbuild/obj/sprite_checkbox_tileset.rel
                                          [ sprite_checkbox_tileset ]
C:/Users/amish/AppData/Local/Temp/_gbsbuild/obj/sprite_checkbox.rel
                                          [ sprite_checkbox ]
C:/Users/amish/AppData/Local/Temp/_gbsbuild/obj/sprite_cursor_tileset.rel
                                          [ sprite_cursor_tileset ]
C:/Users/amish/AppData/Local/Temp/_gbsbuild/obj/sprite_cursor.rel
                                          [ sprite_cursor ]
C:/Users/amish/AppData/Local/Temp/_gbsbuild/obj/sprite_drop_ui_tileset.rel
                                          [ sprite_drop_ui_tileset ]
C:/Users/amish/AppData/Local/Temp/_gbsbuild/obj/sprite_drop_ui.rel
                                          [ sprite_drop_ui ]
C:/Users/amish/AppData/Local/Temp/_gbsbuild/obj/sprite_elephant_tileset.rel
                                          [ sprite_elephant_tileset ]
C:/Users/amish/AppData/Local/Temp/_gbsbuild/obj/sprite_elephant.rel
                                          [ sprite_elephant ]
C:/Users/amish/AppData/Local/Temp/_gbsbuild/obj/sprite_enemy_ship_tileset.rel
                                          [ sprite_enemy_ship_tileset ]
C:/Users/amish/AppData/Local/Temp/_gbsbuild/obj/sprite_enemy_ship.rel
                                          [ sprite_enemy_ship ]
C:/Users/amish/AppData/Local/Temp/_gbsbuild/obj/sprite_fly_temp_tileset.rel
                                          [ sprite_fly_temp_tileset ]
C:/Users/amish/AppData/Local/Temp/_gbsbuild/obj/sprite_fly_temp.rel
                                          [ sprite_fly_temp ]
C:/Users/amish/AppData/Local/Temp/_gbsbuild/obj/sprite_foreground_temp_powe_tileset.rel
                                          [ sprite_foreground_temp_powe_tile ]
C:/Users/amish/AppData/Local/Temp/_gbsbuild/obj/sprite_foreground_temp_powe.rel
                                          [ sprite_foreground_temp_powe ]
C:/Users/amish/AppData/Local/Temp/_gbsbuild/obj/sprite_gbs_font_tileset.rel
                                          [ sprite_gbs_font_tileset ]
C:/Users/amish/AppData/Local/Temp/_gbsbuild/obj/sprite_gbs_font.rel
                                          [ sprite_gbs_font ]
C:/Users/amish/AppData/Local/Temp/_gbsbuild/obj/sprite_player_platform_tileset.rel
                                          [ sprite_player_platform_tileset ]
C:/Users/amish/AppData/Local/Temp/_gbsbuild/obj/sprite_player_platform.rel
                                          [ sprite_player_platform ]
C:/Users/amish/AppData/Local/Temp/_gbsbuild/obj/sprite_player_ship_tileset.rel
                                          [ sprite_player_ship_tileset ]
C:/Users/amish/AppData/Local/Temp/_gbsbuild/obj/sprite_player_ship.rel
                                          [ sprite_player_ship ]
C:/Users/amish/AppData/Local/Temp/_gbsbuild/obj/sprite_player_tileset.rel
                                          [ sprite_player_tileset ]
C:/Users/amish/AppData/Local/Temp/_gbsbuild/obj/sprite_player.rel
                                          [ sprite_player ]
C:/Users/amish/AppData/Local/Temp/_gbsbuild/obj/sprite_rock_tileset.rel
                                          [ sprite_rock_tileset ]
C:/Users/amish/AppData/Local/Temp/_gbsbuild/obj/sprite_rock.rel
                                          [ sprite_rock ]
C:/Users/amish/AppData/Local/Temp/_gbsbuild/obj/sprite_signpost_tileset.rel
                                          [ sprite_signpost_tileset ]
C:/Users/amish/AppData/Local/Temp/_gbsbuild/obj/sprite_signpost.rel
                                          [ sprite_signpost ]
C:/Users/amish/AppData/Local/Temp/_gbsbuild/obj/sprite_smoke_temp_tileset.rel
                                          [ sprite_smoke_temp_tileset ]
C:/Users/amish/AppData/Local/Temp/_gbsbuild/obj/sprite_smoke_temp.rel
                                          [ sprite_smoke_temp ]
C:/Users/amish/AppData/Local/Temp/_gbsbuild/obj/sprite_soot_baby_temp_tileset.rel
                                          [ sprite_soot_baby_temp_tileset ]
C:/Users/amish/AppData/Local/Temp/_gbsbuild/obj/sprite_soot_baby_temp.rel
                                          [ sprite_soot_baby_temp ]
C:/Users/amish/AppData/Local/Temp/_gbsbuild/obj/sprite_space_mine_tileset.rel
                                          [ sprite_space_mine_tileset ]
C:/Users/amish/AppData/Local/Temp/_gbsbuild/obj/sprite_space_mine.rel
                                          [ sprite_space_mine ]
C:/Users/amish/AppData/Local/Temp/_gbsbuild/obj/sprite_sprite_raindrop_tileset.rel
                                          [ sprite_sprite_raindrop_tileset ]
C:/Users/amish/AppData/Local/Temp/_gbsbuild/obj/sprite_sprite_raindrop.rel
                                          [ sprite_sprite_raindrop ]
C:/Users/amish/AppData/Local/Temp/_gbsbuild/obj/sprite_truck_temp_tileset.rel
                                          [ sprite_truck_temp_tileset ]
C:/Users/amish/AppData/Local/Temp/_gbsbuild/obj/sprite_truck_temp.rel
                                          [ sprite_truck_temp ]
C:/Users/amish/AppData/Local/Temp/_gbsbuild/obj/sprite_turnip_tileset.rel
                                          [ sprite_turnip_tileset ]
C:/Users/amish/AppData/Local/Temp/_gbsbuild/obj/sprite_turnip.rel
                                          [ sprite_turnip ]
C:/Users/amish/AppData/Local/Temp/_gbsbuild/obj/sprite_ui_weapon_tileset.rel
                                          [ sprite_ui_weapon_tileset ]
C:/Users/amish/AppData/Local/Temp/_gbsbuild/obj/sprite_ui_weapon.rel
                                          [ sprite_ui_weapon ]
C:/Users/amish/AppData/Local/Temp/_gbsbuild/obj/spritesheet_none.rel
                                          [ spritesheet_none ]
C:/Users/amish/AppData/Local/Temp/_gbsbuild/obj/trigger_0_interact.rel
                                          [ trigger_0_interact ]
C:/Users/amish/AppData/Local/Temp/_gbsbuild/obj/trigger_1_interact.rel
                                          [ trigger_1_interact ]
C:/Users/amish/AppData/Local/Temp/_gbsbuild/obj/trigger_18_interact.rel
                                          [ trigger_18_interact ]
C:/Users/amish/AppData/Local/Temp/_gbsbuild/obj/trigger_19_interact.rel
                                          [ trigger_19_interact ]
C:/Users/amish/AppData/Local/Temp/_gbsbuild/obj/trigger_2_interact.rel
                                          [ trigger_2_interact ]
C:/Users/amish/AppData/Local/Temp/_gbsbuild/obj/trigger_20_interact.rel
                                          [ trigger_20_interact ]
C:/Users/amish/AppData/Local/Temp/_gbsbuild/obj/trigger_21_interact.rel
                                          [ trigger_21_interact ]
C:/Users/amish/AppData/Local/Temp/_gbsbuild/obj/trigger_22_interact.rel
                                          [ trigger_22_interact ]
C:/Users/amish/AppData/Local/Temp/_gbsbuild/obj/trigger_23_interact.rel
                                          [ trigger_23_interact ]
C:/Users/amish/AppData/Local/Temp/_gbsbuild/obj/trigger_24_interact.rel
                                          [ trigger_24_interact ]
C:/Users/amish/AppData/Local/Temp/_gbsbuild/obj/trigger_25_interact.rel
                                          [ trigger_25_interact ]
C:/Users/amish/AppData/Local/Temp/_gbsbuild/obj/trigger_26_interact.rel
                                          [ trigger_26_interact ]
C:/Users/amish/AppData/Local/Temp/_gbsbuild/obj/trigger_27_interact.rel
                                          [ trigger_27_interact ]
C:/Users/amish/AppData/Local/Temp/_gbsbuild/obj/trigger_28_interact.rel
                                          [ trigger_28_interact ]
C:/Users/amish/AppData/Local/Temp/_gbsbuild/obj/trigger_29_interact.rel
                                          [ trigger_29_interact ]
C:/Users/amish/AppData/Local/Temp/_gbsbuild/obj/trigger_40_interact.rel
                                          [ trigger_40_interact ]
C:/Users/amish/AppData/Local/Temp/_gbsbuild/obj/main.rel
                                          [ main ]
C:/Users/amish/AppData/Local/Temp/_gbsbuild/obj/adventure.rel
                                          [ adventure ]
C:/Users/amish/AppData/Local/Temp/_gbsbuild/obj/logo.rel
                                          [ logo ]
C:/Users/amish/AppData/Local/Temp/_gbsbuild/obj/platform.rel
                                          [ platform ]
C:/Users/amish/AppData/Local/Temp/_gbsbuild/obj/pointnclick.rel
                                          [ pointnclick ]
C:/Users/amish/AppData/Local/Temp/_gbsbuild/obj/shmup.rel
                                          [ shmup ]
C:/Users/amish/AppData/Local/Temp/_gbsbuild/obj/states_ptrs.rel
                                          [  ]
C:/Users/amish/AppData/Local/Temp/_gbsbuild/obj/topdown.rel
                                          [ topdown ]


Libraries Linked                          [ object file ]

C:\Users\amish\AppData\Local\Temp/_gbstools/gbdk/lib/small/asxxxx/gb/gb.lib
                                          [ fill_rect_wi.o ]
C:\Users\amish\AppData\Local\Temp/_gbstools/gbdk/lib/small/asxxxx/gbz80/gbz80.lib
                                          [ rand.o ]
lib/hUGEDriver.lib                        [ hUGEDriver.obj.o ]
C:\Users\amish\AppData\Local\Temp/_gbstools/gbdk/lib/small/asxxxx/gb/gb.lib
                                          [ sfr.o ]
C:\Users\amish\AppData\Local\Temp/_gbstools/gbdk/lib/small/asxxxx/gb/gb.lib
                                          [ get_data.o ]
C:\Users\amish\AppData\Local\Temp/_gbstools/gbdk/lib/small/asxxxx/gb/gb.lib
                                          [ get_tile.o ]
C:\Users\amish\AppData\Local\Temp/_gbstools/gbdk/lib/small/asxxxx/gb/gb.lib
                                          [ cgb_palettes.o ]
C:\Users\amish\AppData\Local\Temp/_gbstools/gbdk/lib/small/asxxxx/gb/gb.lib
                                          [ metasprites_hide_spr.o ]
C:\Users\amish\AppData\Local\Temp/_gbstools/gbdk/lib/small/asxxxx/gbz80/gbz80.lib
                                          [ mul.o ]
C:\Users\amish\AppData\Local\Temp/_gbstools/gbdk/lib/small/asxxxx/gbz80/gbz80.lib
                                          [ abs.o ]
C:\Users\amish\AppData\Local\Temp/_gbstools/gbdk/lib/small/asxxxx/gb/gb.lib
                                          [ set_wi_t.o ]
C:\Users\amish\AppData\Local\Temp/_gbstools/gbdk/lib/small/asxxxx/gb/gb.lib
                                          [ set_data.o ]
C:\Users\amish\AppData\Local\Temp/_gbstools/gbdk/lib/small/asxxxx/gbz80/gbz80.lib
                                          [ reverse.o ]
C:\Users\amish\AppData\Local\Temp/_gbstools/gbdk/lib/small/asxxxx/gb/gb.lib
                                          [ far_ptr.o ]
C:\Users\amish\AppData\Local\Temp/_gbstools/gbdk/lib/small/asxxxx/gb/gb.lib
                                          [ sgb.o ]
C:\Users\amish\AppData\Local\Temp/_gbstools/gbdk/lib/small/asxxxx/gb/gb.lib
                                          [ lcd.o ]
C:\Users\amish\AppData\Local\Temp/_gbstools/gbdk/lib/small/asxxxx/gb/gb.lib
                                          [ fill_rect.o ]
C:\Users\amish\AppData\Local\Temp/_gbstools/gbdk/lib/small/asxxxx/gb/gb.lib
                                          [ cpy_data.o ]
C:\Users\amish\AppData\Local\Temp/_gbstools/gbdk/lib/small/asxxxx/gb/gb.lib
                                          [ fill_rect_bk.o ]
C:\Users\amish\AppData\Local\Temp/_gbstools/gbdk/lib/small/asxxxx/gb/gb.lib
                                          [ pad.o ]
C:\Users\amish\AppData\Local\Temp/_gbstools/gbdk/lib/small/asxxxx/gb/gb.lib
                                          [ metasprites.o ]
C:\Users\amish\AppData\Local\Temp/_gbstools/gbdk/lib/small/asxxxx/gbz80/gbz80.lib
                                          [ __sdcc_call_hl.o ]
C:\Users\amish\AppData\Local\Temp/_gbstools/gbdk/lib/small/asxxxx/gbz80/gbz80.lib
                                          [ _memcpy.o ]
C:\Users\amish\AppData\Local\Temp/_gbstools/gbdk/lib/small/asxxxx/gbz80/gbz80.lib
                                          [ _memset.o ]
C:\Users\amish\AppData\Local\Temp/_gbstools/gbdk/lib/small/asxxxx/gb/gb.lib
                                          [ set_xy_t.o ]
C:\Users\amish\AppData\Local\Temp/_gbstools/gbdk/lib/small/asxxxx/gb/gb.lib
                                          [ cgb.o ]
C:\Users\amish\AppData\Local\Temp/_gbstools/gbdk/lib/small/asxxxx/gbz80/gbz80.lib
                                          [ div.o ]
C:\Users\amish\AppData\Local\Temp/_gbstools/gbdk/lib/small/asxxxx/gb/gb.lib
                                          [ set_bk_t.o ]

ASxxxx Linker V03.00 + NoICE + sdld,  page 76.

User Base Address Definitions

_DATA=0xC0A0
_CODE=0x0200
ASxxxx Linker V03.00 + NoICE + sdld,  page 77.

User Global Definitions

.STACK=0xDF00
_shadow_OAM=0xC000
.refresh_OAM=0xFF80
__start_save=12

